                                      1 ;--------------------------------------------------------
                                      2 ; File Created by SDCC : free open source ANSI-C Compiler
                                      3 ; Version 4.0.0 #11528 (MINGW64)
                                      4 ;--------------------------------------------------------
                                      5 	.module delay
                                      6 	.optsdcc -mmcs51 --model-large
                                      7 	
                                      8 ;--------------------------------------------------------
                                      9 ; Public variables in this module
                                     10 ;--------------------------------------------------------
                                     11 	.globl _DelayUs
                                     12 	.globl _Delay
                                     13 	.globl _delay_ms
                                     14 ;--------------------------------------------------------
                                     15 ; special function registers
                                     16 ;--------------------------------------------------------
                                     17 	.area RSEG    (ABS,DATA)
      000000                         18 	.org 0x0000
                                     19 ;--------------------------------------------------------
                                     20 ; special function bits
                                     21 ;--------------------------------------------------------
                                     22 	.area RSEG    (ABS,DATA)
      000000                         23 	.org 0x0000
                                     24 ;--------------------------------------------------------
                                     25 ; overlayable register banks
                                     26 ;--------------------------------------------------------
                                     27 	.area REG_BANK_0	(REL,OVR,DATA)
      000000                         28 	.ds 8
                                     29 ;--------------------------------------------------------
                                     30 ; internal ram data
                                     31 ;--------------------------------------------------------
                                     32 	.area DSEG    (DATA)
                                     33 ;--------------------------------------------------------
                                     34 ; overlayable items in internal ram 
                                     35 ;--------------------------------------------------------
                                     36 ;--------------------------------------------------------
                                     37 ; indirectly addressable internal ram data
                                     38 ;--------------------------------------------------------
                                     39 	.area ISEG    (DATA)
                                     40 ;--------------------------------------------------------
                                     41 ; absolute internal ram data
                                     42 ;--------------------------------------------------------
                                     43 	.area IABS    (ABS,DATA)
                                     44 	.area IABS    (ABS,DATA)
                                     45 ;--------------------------------------------------------
                                     46 ; bit data
                                     47 ;--------------------------------------------------------
                                     48 	.area BSEG    (BIT)
                                     49 ;--------------------------------------------------------
                                     50 ; paged external ram data
                                     51 ;--------------------------------------------------------
                                     52 	.area PSEG    (PAG,XDATA)
                                     53 ;--------------------------------------------------------
                                     54 ; external ram data
                                     55 ;--------------------------------------------------------
                                     56 	.area XSEG    (XDATA)
      000000                         57 _DelayUs_us_65536_4:
      000000                         58 	.ds 2
      000002                         59 _Delay_ms_65536_7:
      000002                         60 	.ds 2
      000004                         61 _delay_ms_n_65536_11:
      000004                         62 	.ds 2
                                     63 ;--------------------------------------------------------
                                     64 ; absolute external ram data
                                     65 ;--------------------------------------------------------
                                     66 	.area XABS    (ABS,XDATA)
                                     67 ;--------------------------------------------------------
                                     68 ; external initialized ram data
                                     69 ;--------------------------------------------------------
                                     70 	.area XISEG   (XDATA)
                                     71 	.area HOME    (CODE)
                                     72 	.area GSINIT0 (CODE)
                                     73 	.area GSINIT1 (CODE)
                                     74 	.area GSINIT2 (CODE)
                                     75 	.area GSINIT3 (CODE)
                                     76 	.area GSINIT4 (CODE)
                                     77 	.area GSINIT5 (CODE)
                                     78 	.area GSINIT  (CODE)
                                     79 	.area GSFINAL (CODE)
                                     80 	.area CSEG    (CODE)
                                     81 ;--------------------------------------------------------
                                     82 ; global & static initialisations
                                     83 ;--------------------------------------------------------
                                     84 	.area HOME    (CODE)
                                     85 	.area GSINIT  (CODE)
                                     86 	.area GSFINAL (CODE)
                                     87 	.area GSINIT  (CODE)
                                     88 ;--------------------------------------------------------
                                     89 ; Home
                                     90 ;--------------------------------------------------------
                                     91 	.area HOME    (CODE)
                                     92 	.area HOME    (CODE)
                                     93 ;--------------------------------------------------------
                                     94 ; code
                                     95 ;--------------------------------------------------------
                                     96 	.area CSEG    (CODE)
                                     97 ;------------------------------------------------------------
                                     98 ;Allocation info for local variables in function 'DelayUs'
                                     99 ;------------------------------------------------------------
                                    100 ;us                        Allocated with name '_DelayUs_us_65536_4'
                                    101 ;i                         Allocated with name '_DelayUs_i_65536_5'
                                    102 ;n                         Allocated with name '_DelayUs_n_65536_5'
                                    103 ;------------------------------------------------------------
                                    104 ;	.\lib\delay.c:3: void DelayUs(uint16_t us)
                                    105 ;	-----------------------------------------
                                    106 ;	 function DelayUs
                                    107 ;	-----------------------------------------
      000000                        108 _DelayUs:
                           000007   109 	ar7 = 0x07
                           000006   110 	ar6 = 0x06
                           000005   111 	ar5 = 0x05
                           000004   112 	ar4 = 0x04
                           000003   113 	ar3 = 0x03
                           000002   114 	ar2 = 0x02
                           000001   115 	ar1 = 0x01
                           000000   116 	ar0 = 0x00
      000000 AF 83            [24]  117 	mov	r7,dph
      000002 E5 82            [12]  118 	mov	a,dpl
      000004 90r00r00         [24]  119 	mov	dptr,#_DelayUs_us_65536_4
      000007 F0               [24]  120 	movx	@dptr,a
      000008 EF               [12]  121 	mov	a,r7
      000009 A3               [24]  122 	inc	dptr
      00000A F0               [24]  123 	movx	@dptr,a
                                    124 ;	.\lib\delay.c:5: uint16_t i, n = (us * CLOCK) >> 5;
      00000B 90r00r00         [24]  125 	mov	dptr,#_DelayUs_us_65536_4
      00000E E0               [24]  126 	movx	a,@dptr
      00000F FE               [12]  127 	mov	r6,a
      000010 A3               [24]  128 	inc	dptr
      000011 E0               [24]  129 	movx	a,@dptr
      000012 C4               [12]  130 	swap	a
      000013 54 F0            [12]  131 	anl	a,#0xf0
      000015 CE               [12]  132 	xch	a,r6
      000016 C4               [12]  133 	swap	a
      000017 CE               [12]  134 	xch	a,r6
      000018 6E               [12]  135 	xrl	a,r6
      000019 CE               [12]  136 	xch	a,r6
      00001A 54 F0            [12]  137 	anl	a,#0xf0
      00001C CE               [12]  138 	xch	a,r6
      00001D 6E               [12]  139 	xrl	a,r6
      00001E C4               [12]  140 	swap	a
      00001F 03               [12]  141 	rr	a
      000020 CE               [12]  142 	xch	a,r6
      000021 C4               [12]  143 	swap	a
      000022 03               [12]  144 	rr	a
      000023 54 07            [12]  145 	anl	a,#0x07
      000025 6E               [12]  146 	xrl	a,r6
      000026 CE               [12]  147 	xch	a,r6
      000027 54 07            [12]  148 	anl	a,#0x07
      000029 CE               [12]  149 	xch	a,r6
      00002A 6E               [12]  150 	xrl	a,r6
      00002B CE               [12]  151 	xch	a,r6
      00002C FF               [12]  152 	mov	r7,a
                                    153 ;	.\lib\delay.c:6: for (i = 0; i < n; i++)
      00002D 7C 00            [12]  154 	mov	r4,#0x00
      00002F 7D 00            [12]  155 	mov	r5,#0x00
      000031                        156 00103$:
      000031 C3               [12]  157 	clr	c
      000032 EC               [12]  158 	mov	a,r4
      000033 9E               [12]  159 	subb	a,r6
      000034 ED               [12]  160 	mov	a,r5
      000035 9F               [12]  161 	subb	a,r7
      000036 50 07            [24]  162 	jnc	00105$
      000038 0C               [12]  163 	inc	r4
      000039 BC 00 F5         [24]  164 	cjne	r4,#0x00,00103$
      00003C 0D               [12]  165 	inc	r5
      00003D 80 F2            [24]  166 	sjmp	00103$
      00003F                        167 00105$:
                                    168 ;	.\lib\delay.c:8: }
      00003F 22               [24]  169 	ret
                                    170 ;------------------------------------------------------------
                                    171 ;Allocation info for local variables in function 'Delay'
                                    172 ;------------------------------------------------------------
                                    173 ;ms                        Allocated with name '_Delay_ms_65536_7'
                                    174 ;i                         Allocated with name '_Delay_i_65536_8'
                                    175 ;n                         Allocated with name '_Delay_n_65536_8'
                                    176 ;------------------------------------------------------------
                                    177 ;	.\lib\delay.c:10: void Delay(uint16_t ms)
                                    178 ;	-----------------------------------------
                                    179 ;	 function Delay
                                    180 ;	-----------------------------------------
      000040                        181 _Delay:
      000040 AF 83            [24]  182 	mov	r7,dph
      000042 E5 82            [12]  183 	mov	a,dpl
      000044 90r00r02         [24]  184 	mov	dptr,#_Delay_ms_65536_7
      000047 F0               [24]  185 	movx	@dptr,a
      000048 EF               [12]  186 	mov	a,r7
      000049 A3               [24]  187 	inc	dptr
      00004A F0               [24]  188 	movx	@dptr,a
                                    189 ;	.\lib\delay.c:13: while (ms--)
      00004B 90r00r02         [24]  190 	mov	dptr,#_Delay_ms_65536_7
      00004E E0               [24]  191 	movx	a,@dptr
      00004F FE               [12]  192 	mov	r6,a
      000050 A3               [24]  193 	inc	dptr
      000051 E0               [24]  194 	movx	a,@dptr
      000052 FF               [12]  195 	mov	r7,a
      000053                        196 00102$:
      000053 8E 04            [24]  197 	mov	ar4,r6
      000055 8F 05            [24]  198 	mov	ar5,r7
      000057 1E               [12]  199 	dec	r6
      000058 BE FF 01         [24]  200 	cjne	r6,#0xff,00127$
      00005B 1F               [12]  201 	dec	r7
      00005C                        202 00127$:
      00005C 90r00r02         [24]  203 	mov	dptr,#_Delay_ms_65536_7
      00005F EE               [12]  204 	mov	a,r6
      000060 F0               [24]  205 	movx	@dptr,a
      000061 EF               [12]  206 	mov	a,r7
      000062 A3               [24]  207 	inc	dptr
      000063 F0               [24]  208 	movx	@dptr,a
      000064 EC               [12]  209 	mov	a,r4
      000065 4D               [12]  210 	orl	a,r5
      000066 60 14            [24]  211 	jz	00114$
                                    212 ;	.\lib\delay.c:15: for (i = 0; i < n; i++)
      000068 7C 00            [12]  213 	mov	r4,#0x00
      00006A 7D 00            [12]  214 	mov	r5,#0x00
      00006C                        215 00106$:
      00006C C3               [12]  216 	clr	c
      00006D EC               [12]  217 	mov	a,r4
      00006E 94 E0            [12]  218 	subb	a,#0xe0
      000070 ED               [12]  219 	mov	a,r5
      000071 94 03            [12]  220 	subb	a,#0x03
      000073 50 DE            [24]  221 	jnc	00102$
      000075 0C               [12]  222 	inc	r4
      000076 BC 00 F3         [24]  223 	cjne	r4,#0x00,00106$
      000079 0D               [12]  224 	inc	r5
      00007A 80 F0            [24]  225 	sjmp	00106$
      00007C                        226 00114$:
      00007C 90r00r02         [24]  227 	mov	dptr,#_Delay_ms_65536_7
      00007F EE               [12]  228 	mov	a,r6
      000080 F0               [24]  229 	movx	@dptr,a
      000081 EF               [12]  230 	mov	a,r7
      000082 A3               [24]  231 	inc	dptr
      000083 F0               [24]  232 	movx	@dptr,a
                                    233 ;	.\lib\delay.c:18: }
      000084 22               [24]  234 	ret
                                    235 ;------------------------------------------------------------
                                    236 ;Allocation info for local variables in function 'delay_ms'
                                    237 ;------------------------------------------------------------
                                    238 ;n                         Allocated with name '_delay_ms_n_65536_11'
                                    239 ;i                         Allocated with name '_delay_ms_i_65536_12'
                                    240 ;j                         Allocated with name '_delay_ms_j_65536_12'
                                    241 ;------------------------------------------------------------
                                    242 ;	.\lib\delay.c:22: void delay_ms(unsigned int n)
                                    243 ;	-----------------------------------------
                                    244 ;	 function delay_ms
                                    245 ;	-----------------------------------------
      000085                        246 _delay_ms:
      000085 AF 83            [24]  247 	mov	r7,dph
      000087 E5 82            [12]  248 	mov	a,dpl
      000089 90r00r04         [24]  249 	mov	dptr,#_delay_ms_n_65536_11
      00008C F0               [24]  250 	movx	@dptr,a
      00008D EF               [12]  251 	mov	a,r7
      00008E A3               [24]  252 	inc	dptr
      00008F F0               [24]  253 	movx	@dptr,a
                                    254 ;	.\lib\delay.c:25: for(i=0;i<n;i++)
      000090 90r00r04         [24]  255 	mov	dptr,#_delay_ms_n_65536_11
      000093 E0               [24]  256 	movx	a,@dptr
      000094 FE               [12]  257 	mov	r6,a
      000095 A3               [24]  258 	inc	dptr
      000096 E0               [24]  259 	movx	a,@dptr
      000097 FF               [12]  260 	mov	r7,a
      000098 7C 00            [12]  261 	mov	r4,#0x00
      00009A 7D 00            [12]  262 	mov	r5,#0x00
      00009C                        263 00107$:
      00009C C3               [12]  264 	clr	c
      00009D EC               [12]  265 	mov	a,r4
      00009E 9E               [12]  266 	subb	a,r6
      00009F ED               [12]  267 	mov	a,r5
      0000A0 9F               [12]  268 	subb	a,r7
      0000A1 50 14            [24]  269 	jnc	00109$
                                    270 ;	.\lib\delay.c:26: for(j=0;j<357;j++); 
      0000A3 7A 65            [12]  271 	mov	r2,#0x65
      0000A5 7B 01            [12]  272 	mov	r3,#0x01
      0000A7                        273 00105$:
      0000A7 1A               [12]  274 	dec	r2
      0000A8 BA FF 01         [24]  275 	cjne	r2,#0xff,00130$
      0000AB 1B               [12]  276 	dec	r3
      0000AC                        277 00130$:
      0000AC EA               [12]  278 	mov	a,r2
      0000AD 4B               [12]  279 	orl	a,r3
      0000AE 70 F7            [24]  280 	jnz	00105$
                                    281 ;	.\lib\delay.c:25: for(i=0;i<n;i++)
      0000B0 0C               [12]  282 	inc	r4
      0000B1 BC 00 E8         [24]  283 	cjne	r4,#0x00,00107$
      0000B4 0D               [12]  284 	inc	r5
      0000B5 80 E5            [24]  285 	sjmp	00107$
      0000B7                        286 00109$:
                                    287 ;	.\lib\delay.c:27: }
      0000B7 22               [24]  288 	ret
                                    289 	.area CSEG    (CODE)
                                    290 	.area CONST   (CODE)
                                    291 	.area XINIT   (CODE)
                                    292 	.area CABS    (ABS,CODE)
