                                      1 ;--------------------------------------------------------
                                      2 ; File Created by SDCC : free open source ANSI-C Compiler
                                      3 ; Version 4.0.0 #11528 (MINGW64)
                                      4 ;--------------------------------------------------------
                                      5 	.module dht11
                                      6 	.optsdcc -mmcs51 --model-large
                                      7 	
                                      8 ;--------------------------------------------------------
                                      9 ; Public variables in this module
                                     10 ;--------------------------------------------------------
                                     11 	.globl __Delay10us
                                     12 	.globl _Delay
                                     13 	.globl _CY
                                     14 	.globl _AC
                                     15 	.globl _F0
                                     16 	.globl _RS1
                                     17 	.globl _RS0
                                     18 	.globl _OV
                                     19 	.globl _F1
                                     20 	.globl _P
                                     21 	.globl _PS
                                     22 	.globl _PT1
                                     23 	.globl _PX1
                                     24 	.globl _PT0
                                     25 	.globl _PX0
                                     26 	.globl _RD
                                     27 	.globl _WR
                                     28 	.globl _T1
                                     29 	.globl _T0
                                     30 	.globl _INT1
                                     31 	.globl _INT0
                                     32 	.globl _TXD
                                     33 	.globl _RXD
                                     34 	.globl _P3_7
                                     35 	.globl _P3_6
                                     36 	.globl _P3_5
                                     37 	.globl _P3_4
                                     38 	.globl _P3_3
                                     39 	.globl _P3_2
                                     40 	.globl _P3_1
                                     41 	.globl _P3_0
                                     42 	.globl _EA
                                     43 	.globl _ES
                                     44 	.globl _ET1
                                     45 	.globl _EX1
                                     46 	.globl _ET0
                                     47 	.globl _EX0
                                     48 	.globl _P2_7
                                     49 	.globl _P2_6
                                     50 	.globl _P2_5
                                     51 	.globl _P2_4
                                     52 	.globl _P2_3
                                     53 	.globl _P2_2
                                     54 	.globl _P2_1
                                     55 	.globl _P2_0
                                     56 	.globl _SM0
                                     57 	.globl _SM1
                                     58 	.globl _SM2
                                     59 	.globl _REN
                                     60 	.globl _TB8
                                     61 	.globl _RB8
                                     62 	.globl _TI
                                     63 	.globl _RI
                                     64 	.globl _P1_7
                                     65 	.globl _P1_6
                                     66 	.globl _P1_5
                                     67 	.globl _P1_4
                                     68 	.globl _P1_3
                                     69 	.globl _P1_2
                                     70 	.globl _P1_1
                                     71 	.globl _P1_0
                                     72 	.globl _TF1
                                     73 	.globl _TR1
                                     74 	.globl _TF0
                                     75 	.globl _TR0
                                     76 	.globl _IE1
                                     77 	.globl _IT1
                                     78 	.globl _IE0
                                     79 	.globl _IT0
                                     80 	.globl _P0_7
                                     81 	.globl _P0_6
                                     82 	.globl _P0_5
                                     83 	.globl _P0_4
                                     84 	.globl _P0_3
                                     85 	.globl _P0_2
                                     86 	.globl _P0_1
                                     87 	.globl _P0_0
                                     88 	.globl _B
                                     89 	.globl _ACC
                                     90 	.globl _PSW
                                     91 	.globl _IP
                                     92 	.globl _P3
                                     93 	.globl _IE
                                     94 	.globl _P2
                                     95 	.globl _SBUF
                                     96 	.globl _SCON
                                     97 	.globl _P1
                                     98 	.globl _TH1
                                     99 	.globl _TH0
                                    100 	.globl _TL1
                                    101 	.globl _TL0
                                    102 	.globl _TMOD
                                    103 	.globl _TCON
                                    104 	.globl _PCON
                                    105 	.globl _DPH
                                    106 	.globl _DPL
                                    107 	.globl _SP
                                    108 	.globl _P0
                                    109 	.globl _DHT11_Measure
                                    110 ;--------------------------------------------------------
                                    111 ; special function registers
                                    112 ;--------------------------------------------------------
                                    113 	.area RSEG    (ABS,DATA)
      000000                        114 	.org 0x0000
                           000080   115 _P0	=	0x0080
                           000081   116 _SP	=	0x0081
                           000082   117 _DPL	=	0x0082
                           000083   118 _DPH	=	0x0083
                           000087   119 _PCON	=	0x0087
                           000088   120 _TCON	=	0x0088
                           000089   121 _TMOD	=	0x0089
                           00008A   122 _TL0	=	0x008a
                           00008B   123 _TL1	=	0x008b
                           00008C   124 _TH0	=	0x008c
                           00008D   125 _TH1	=	0x008d
                           000090   126 _P1	=	0x0090
                           000098   127 _SCON	=	0x0098
                           000099   128 _SBUF	=	0x0099
                           0000A0   129 _P2	=	0x00a0
                           0000A8   130 _IE	=	0x00a8
                           0000B0   131 _P3	=	0x00b0
                           0000B8   132 _IP	=	0x00b8
                           0000D0   133 _PSW	=	0x00d0
                           0000E0   134 _ACC	=	0x00e0
                           0000F0   135 _B	=	0x00f0
                                    136 ;--------------------------------------------------------
                                    137 ; special function bits
                                    138 ;--------------------------------------------------------
                                    139 	.area RSEG    (ABS,DATA)
      000000                        140 	.org 0x0000
                           000080   141 _P0_0	=	0x0080
                           000081   142 _P0_1	=	0x0081
                           000082   143 _P0_2	=	0x0082
                           000083   144 _P0_3	=	0x0083
                           000084   145 _P0_4	=	0x0084
                           000085   146 _P0_5	=	0x0085
                           000086   147 _P0_6	=	0x0086
                           000087   148 _P0_7	=	0x0087
                           000088   149 _IT0	=	0x0088
                           000089   150 _IE0	=	0x0089
                           00008A   151 _IT1	=	0x008a
                           00008B   152 _IE1	=	0x008b
                           00008C   153 _TR0	=	0x008c
                           00008D   154 _TF0	=	0x008d
                           00008E   155 _TR1	=	0x008e
                           00008F   156 _TF1	=	0x008f
                           000090   157 _P1_0	=	0x0090
                           000091   158 _P1_1	=	0x0091
                           000092   159 _P1_2	=	0x0092
                           000093   160 _P1_3	=	0x0093
                           000094   161 _P1_4	=	0x0094
                           000095   162 _P1_5	=	0x0095
                           000096   163 _P1_6	=	0x0096
                           000097   164 _P1_7	=	0x0097
                           000098   165 _RI	=	0x0098
                           000099   166 _TI	=	0x0099
                           00009A   167 _RB8	=	0x009a
                           00009B   168 _TB8	=	0x009b
                           00009C   169 _REN	=	0x009c
                           00009D   170 _SM2	=	0x009d
                           00009E   171 _SM1	=	0x009e
                           00009F   172 _SM0	=	0x009f
                           0000A0   173 _P2_0	=	0x00a0
                           0000A1   174 _P2_1	=	0x00a1
                           0000A2   175 _P2_2	=	0x00a2
                           0000A3   176 _P2_3	=	0x00a3
                           0000A4   177 _P2_4	=	0x00a4
                           0000A5   178 _P2_5	=	0x00a5
                           0000A6   179 _P2_6	=	0x00a6
                           0000A7   180 _P2_7	=	0x00a7
                           0000A8   181 _EX0	=	0x00a8
                           0000A9   182 _ET0	=	0x00a9
                           0000AA   183 _EX1	=	0x00aa
                           0000AB   184 _ET1	=	0x00ab
                           0000AC   185 _ES	=	0x00ac
                           0000AF   186 _EA	=	0x00af
                           0000B0   187 _P3_0	=	0x00b0
                           0000B1   188 _P3_1	=	0x00b1
                           0000B2   189 _P3_2	=	0x00b2
                           0000B3   190 _P3_3	=	0x00b3
                           0000B4   191 _P3_4	=	0x00b4
                           0000B5   192 _P3_5	=	0x00b5
                           0000B6   193 _P3_6	=	0x00b6
                           0000B7   194 _P3_7	=	0x00b7
                           0000B0   195 _RXD	=	0x00b0
                           0000B1   196 _TXD	=	0x00b1
                           0000B2   197 _INT0	=	0x00b2
                           0000B3   198 _INT1	=	0x00b3
                           0000B4   199 _T0	=	0x00b4
                           0000B5   200 _T1	=	0x00b5
                           0000B6   201 _WR	=	0x00b6
                           0000B7   202 _RD	=	0x00b7
                           0000B8   203 _PX0	=	0x00b8
                           0000B9   204 _PT0	=	0x00b9
                           0000BA   205 _PX1	=	0x00ba
                           0000BB   206 _PT1	=	0x00bb
                           0000BC   207 _PS	=	0x00bc
                           0000D0   208 _P	=	0x00d0
                           0000D1   209 _F1	=	0x00d1
                           0000D2   210 _OV	=	0x00d2
                           0000D3   211 _RS0	=	0x00d3
                           0000D4   212 _RS1	=	0x00d4
                           0000D5   213 _F0	=	0x00d5
                           0000D6   214 _AC	=	0x00d6
                           0000D7   215 _CY	=	0x00d7
                                    216 ;--------------------------------------------------------
                                    217 ; overlayable register banks
                                    218 ;--------------------------------------------------------
                                    219 	.area REG_BANK_0	(REL,OVR,DATA)
      000000                        220 	.ds 8
                                    221 ;--------------------------------------------------------
                                    222 ; internal ram data
                                    223 ;--------------------------------------------------------
                                    224 	.area DSEG    (DATA)
      000000                        225 _DHT11_Measure_sloc0_1_0:
      000000                        226 	.ds 3
                                    227 ;--------------------------------------------------------
                                    228 ; overlayable items in internal ram 
                                    229 ;--------------------------------------------------------
                                    230 ;--------------------------------------------------------
                                    231 ; indirectly addressable internal ram data
                                    232 ;--------------------------------------------------------
                                    233 	.area ISEG    (DATA)
                                    234 ;--------------------------------------------------------
                                    235 ; absolute internal ram data
                                    236 ;--------------------------------------------------------
                                    237 	.area IABS    (ABS,DATA)
                                    238 	.area IABS    (ABS,DATA)
                                    239 ;--------------------------------------------------------
                                    240 ; bit data
                                    241 ;--------------------------------------------------------
                                    242 	.area BSEG    (BIT)
                                    243 ;--------------------------------------------------------
                                    244 ; paged external ram data
                                    245 ;--------------------------------------------------------
                                    246 	.area PSEG    (PAG,XDATA)
                                    247 ;--------------------------------------------------------
                                    248 ; external ram data
                                    249 ;--------------------------------------------------------
                                    250 	.area XSEG    (XDATA)
      000000                        251 _DHT11_Measure_dat_65536_5:
      000000                        252 	.ds 3
      000003                        253 _DHT11_Measure_buf_65536_6:
      000003                        254 	.ds 5
      000008                        255 _DHT11_Measure_errCode_65536_6:
      000008                        256 	.ds 1
                                    257 ;--------------------------------------------------------
                                    258 ; absolute external ram data
                                    259 ;--------------------------------------------------------
                                    260 	.area XABS    (ABS,XDATA)
                                    261 ;--------------------------------------------------------
                                    262 ; external initialized ram data
                                    263 ;--------------------------------------------------------
                                    264 	.area XISEG   (XDATA)
                                    265 	.area HOME    (CODE)
                                    266 	.area GSINIT0 (CODE)
                                    267 	.area GSINIT1 (CODE)
                                    268 	.area GSINIT2 (CODE)
                                    269 	.area GSINIT3 (CODE)
                                    270 	.area GSINIT4 (CODE)
                                    271 	.area GSINIT5 (CODE)
                                    272 	.area GSINIT  (CODE)
                                    273 	.area GSFINAL (CODE)
                                    274 	.area CSEG    (CODE)
                                    275 ;--------------------------------------------------------
                                    276 ; global & static initialisations
                                    277 ;--------------------------------------------------------
                                    278 	.area HOME    (CODE)
                                    279 	.area GSINIT  (CODE)
                                    280 	.area GSFINAL (CODE)
                                    281 	.area GSINIT  (CODE)
                                    282 ;--------------------------------------------------------
                                    283 ; Home
                                    284 ;--------------------------------------------------------
                                    285 	.area HOME    (CODE)
                                    286 	.area HOME    (CODE)
                                    287 ;--------------------------------------------------------
                                    288 ; code
                                    289 ;--------------------------------------------------------
                                    290 	.area CSEG    (CODE)
                                    291 ;------------------------------------------------------------
                                    292 ;Allocation info for local variables in function '_Delay10us'
                                    293 ;------------------------------------------------------------
                                    294 ;i                         Allocated with name '__Delay10us_i_65536_4'
                                    295 ;------------------------------------------------------------
                                    296 ;	.\driver\dht11.c:3: void _Delay10us() // @16MHz, 软件延时，由 STC-ISP 工具生成
                                    297 ;	-----------------------------------------
                                    298 ;	 function _Delay10us
                                    299 ;	-----------------------------------------
      000000                        300 __Delay10us:
                           000007   301 	ar7 = 0x07
                           000006   302 	ar6 = 0x06
                           000005   303 	ar5 = 0x05
                           000004   304 	ar4 = 0x04
                           000003   305 	ar3 = 0x03
                           000002   306 	ar2 = 0x02
                           000001   307 	ar1 = 0x01
                           000000   308 	ar0 = 0x00
                                    309 ;	.\driver\dht11.c:6: _nop_();
      000000 00               [12]  310 	nop
                                    311 ;	.\driver\dht11.c:7: _nop_();
      000001 00               [12]  312 	nop
                                    313 ;	.\driver\dht11.c:9: while (--i)
      000002 7F 25            [12]  314 	mov	r7,#0x25
      000004                        315 00101$:
      000004 DF FE            [24]  316 	djnz	r7,00101$
                                    317 ;	.\driver\dht11.c:11: }
      000006 22               [24]  318 	ret
                                    319 ;------------------------------------------------------------
                                    320 ;Allocation info for local variables in function 'DHT11_Measure'
                                    321 ;------------------------------------------------------------
                                    322 ;sloc0                     Allocated with name '_DHT11_Measure_sloc0_1_0'
                                    323 ;dat                       Allocated with name '_DHT11_Measure_dat_65536_5'
                                    324 ;buf                       Allocated with name '_DHT11_Measure_buf_65536_6'
                                    325 ;i                         Allocated with name '_DHT11_Measure_i_65536_6'
                                    326 ;j                         Allocated with name '_DHT11_Measure_j_65536_6'
                                    327 ;errCode                   Allocated with name '_DHT11_Measure_errCode_65536_6'
                                    328 ;------------------------------------------------------------
                                    329 ;	.\driver\dht11.c:13: uint8_t DHT11_Measure(DHT11_Data *dat)
                                    330 ;	-----------------------------------------
                                    331 ;	 function DHT11_Measure
                                    332 ;	-----------------------------------------
      000007                        333 _DHT11_Measure:
      000007 AF F0            [24]  334 	mov	r7,b
      000009 AE 83            [24]  335 	mov	r6,dph
      00000B E5 82            [12]  336 	mov	a,dpl
      00000D 90r00r00         [24]  337 	mov	dptr,#_DHT11_Measure_dat_65536_5
      000010 F0               [24]  338 	movx	@dptr,a
      000011 EE               [12]  339 	mov	a,r6
      000012 A3               [24]  340 	inc	dptr
      000013 F0               [24]  341 	movx	@dptr,a
      000014 EF               [12]  342 	mov	a,r7
      000015 A3               [24]  343 	inc	dptr
      000016 F0               [24]  344 	movx	@dptr,a
                                    345 ;	.\driver\dht11.c:16: uint8_t i, j, errCode = DHT11_DONE;
      000017 90r00r08         [24]  346 	mov	dptr,#_DHT11_Measure_errCode_65536_6
      00001A E4               [12]  347 	clr	a
      00001B F0               [24]  348 	movx	@dptr,a
                                    349 ;	.\driver\dht11.c:18: DATA_WRITE(0);
                                    350 ;	assignBit
      00001C C2 91            [12]  351 	clr	_P1_1
                                    352 ;	.\driver\dht11.c:19: _Delay(20); // 开始信号 20 ms
      00001E 90 00 14         [24]  353 	mov	dptr,#0x0014
      000021 12r00r00         [24]  354 	lcall	_Delay
                                    355 ;	.\driver\dht11.c:20: DATA_WRITE(1);
                                    356 ;	assignBit
      000024 D2 91            [12]  357 	setb	_P1_1
                                    358 ;	.\driver\dht11.c:23: _Delay10us();
      000026 12r00r00         [24]  359 	lcall	__Delay10us
                                    360 ;	.\driver\dht11.c:24: _Delay10us();
      000029 12r00r00         [24]  361 	lcall	__Delay10us
                                    362 ;	.\driver\dht11.c:25: _Delay10us();
      00002C 12r00r00         [24]  363 	lcall	__Delay10us
                                    364 ;	.\driver\dht11.c:26: _Delay10us();
      00002F 12r00r00         [24]  365 	lcall	__Delay10us
                                    366 ;	.\driver\dht11.c:27: _Delay10us();
      000032 12r00r00         [24]  367 	lcall	__Delay10us
                                    368 ;	.\driver\dht11.c:28: _Delay10us();
      000035 12r00r00         [24]  369 	lcall	__Delay10us
                                    370 ;	.\driver\dht11.c:30: if (DATA_READ() == 0)
      000038 30 91 03         [24]  371 	jnb	_P1_1,00173$
      00003B 02r01r54         [24]  372 	ljmp	00123$
      00003E                        373 00173$:
                                    374 ;	.\driver\dht11.c:32: while (DATA_READ() == 0) // 等待 DHT11 拉高
      00003E                        375 00101$:
      00003E 30 91 FD         [24]  376 	jnb	_P1_1,00101$
                                    377 ;	.\driver\dht11.c:35: while (DATA_READ() == 1)
      000041                        378 00104$:
      000041 20 91 FD         [24]  379 	jb	_P1_1,00104$
                                    380 ;	.\driver\dht11.c:39: while (i < 5)
      000044 7F 00            [12]  381 	mov	r7,#0x00
      000046                        382 00116$:
      000046 BF 05 00         [24]  383 	cjne	r7,#0x05,00176$
      000049                        384 00176$:
      000049 50 4C            [24]  385 	jnc	00118$
                                    386 ;	.\driver\dht11.c:42: while (j < 8)
      00004B 8F 06            [24]  387 	mov	ar6,r7
      00004D 7D 00            [12]  388 	mov	r5,#0x00
      00004F                        389 00113$:
      00004F BD 08 00         [24]  390 	cjne	r5,#0x08,00178$
      000052                        391 00178$:
      000052 50 40            [24]  392 	jnc	00115$
                                    393 ;	.\driver\dht11.c:44: while (DATA_READ() == 0)
      000054                        394 00107$:
      000054 30 91 FD         [24]  395 	jnb	_P1_1,00107$
                                    396 ;	.\driver\dht11.c:47: _Delay10us();
      000057 C0 07            [24]  397 	push	ar7
      000059 C0 06            [24]  398 	push	ar6
      00005B C0 05            [24]  399 	push	ar5
      00005D 12r00r00         [24]  400 	lcall	__Delay10us
                                    401 ;	.\driver\dht11.c:48: _Delay10us();
      000060 12r00r00         [24]  402 	lcall	__Delay10us
                                    403 ;	.\driver\dht11.c:49: _Delay10us();
      000063 12r00r00         [24]  404 	lcall	__Delay10us
      000066 D0 05            [24]  405 	pop	ar5
      000068 D0 06            [24]  406 	pop	ar6
      00006A D0 07            [24]  407 	pop	ar7
                                    408 ;	.\driver\dht11.c:51: buf[i] <<= 1;
      00006C EE               [12]  409 	mov	a,r6
      00006D 24r03            [12]  410 	add	a,#_DHT11_Measure_buf_65536_6
      00006F FB               [12]  411 	mov	r3,a
      000070 E4               [12]  412 	clr	a
      000071 34s00            [12]  413 	addc	a,#(_DHT11_Measure_buf_65536_6 >> 8)
      000073 FC               [12]  414 	mov	r4,a
      000074 8B 82            [24]  415 	mov	dpl,r3
      000076 8C 83            [24]  416 	mov	dph,r4
      000078 E0               [24]  417 	movx	a,@dptr
      000079 25 E0            [12]  418 	add	a,acc
      00007B FA               [12]  419 	mov	r2,a
      00007C 8B 82            [24]  420 	mov	dpl,r3
      00007E 8C 83            [24]  421 	mov	dph,r4
      000080 F0               [24]  422 	movx	@dptr,a
                                    423 ;	.\driver\dht11.c:52: buf[i] |= DATA_READ();
      000081 A2 91            [12]  424 	mov	c,_P1_1
      000083 E4               [12]  425 	clr	a
      000084 33               [12]  426 	rlc	a
      000085 F9               [12]  427 	mov	r1,a
      000086 42 02            [12]  428 	orl	ar2,a
      000088 8B 82            [24]  429 	mov	dpl,r3
      00008A 8C 83            [24]  430 	mov	dph,r4
      00008C EA               [12]  431 	mov	a,r2
      00008D F0               [24]  432 	movx	@dptr,a
                                    433 ;	.\driver\dht11.c:53: while (DATA_READ() == 1)
      00008E                        434 00110$:
      00008E 20 91 FD         [24]  435 	jb	_P1_1,00110$
                                    436 ;	.\driver\dht11.c:55: j++;
      000091 0D               [12]  437 	inc	r5
      000092 80 BB            [24]  438 	sjmp	00113$
      000094                        439 00115$:
                                    440 ;	.\driver\dht11.c:57: i++;
      000094 0F               [12]  441 	inc	r7
      000095 80 AF            [24]  442 	sjmp	00116$
      000097                        443 00118$:
                                    444 ;	.\driver\dht11.c:60: _Delay10us();
      000097 12r00r00         [24]  445 	lcall	__Delay10us
                                    446 ;	.\driver\dht11.c:61: _Delay10us();
      00009A 12r00r00         [24]  447 	lcall	__Delay10us
                                    448 ;	.\driver\dht11.c:62: _Delay10us();
      00009D 12r00r00         [24]  449 	lcall	__Delay10us
                                    450 ;	.\driver\dht11.c:63: _Delay10us();
      0000A0 12r00r00         [24]  451 	lcall	__Delay10us
                                    452 ;	.\driver\dht11.c:64: _Delay10us();
      0000A3 12r00r00         [24]  453 	lcall	__Delay10us
                                    454 ;	.\driver\dht11.c:65: _Delay10us();
      0000A6 12r00r00         [24]  455 	lcall	__Delay10us
                                    456 ;	.\driver\dht11.c:67: if (buf[4] == buf[0] + buf[1] + buf[2] + buf[3])
      0000A9 90r00r07         [24]  457 	mov	dptr,#(_DHT11_Measure_buf_65536_6 + 0x0004)
      0000AC E0               [24]  458 	movx	a,@dptr
      0000AD FF               [12]  459 	mov	r7,a
      0000AE 90r00r03         [24]  460 	mov	dptr,#_DHT11_Measure_buf_65536_6
      0000B1 E0               [24]  461 	movx	a,@dptr
      0000B2 FE               [12]  462 	mov	r6,a
      0000B3 33               [12]  463 	rlc	a
      0000B4 95 E0            [12]  464 	subb	a,acc
      0000B6 FD               [12]  465 	mov	r5,a
      0000B7 90r00r04         [24]  466 	mov	dptr,#(_DHT11_Measure_buf_65536_6 + 0x0001)
      0000BA E0               [24]  467 	movx	a,@dptr
      0000BB FC               [12]  468 	mov	r4,a
      0000BC 33               [12]  469 	rlc	a
      0000BD 95 E0            [12]  470 	subb	a,acc
      0000BF FB               [12]  471 	mov	r3,a
      0000C0 EC               [12]  472 	mov	a,r4
      0000C1 2E               [12]  473 	add	a,r6
      0000C2 FE               [12]  474 	mov	r6,a
      0000C3 EB               [12]  475 	mov	a,r3
      0000C4 3D               [12]  476 	addc	a,r5
      0000C5 FD               [12]  477 	mov	r5,a
      0000C6 90r00r05         [24]  478 	mov	dptr,#(_DHT11_Measure_buf_65536_6 + 0x0002)
      0000C9 E0               [24]  479 	movx	a,@dptr
      0000CA FC               [12]  480 	mov	r4,a
      0000CB FA               [12]  481 	mov	r2,a
      0000CC 33               [12]  482 	rlc	a
      0000CD 95 E0            [12]  483 	subb	a,acc
      0000CF FB               [12]  484 	mov	r3,a
      0000D0 EA               [12]  485 	mov	a,r2
      0000D1 2E               [12]  486 	add	a,r6
      0000D2 FE               [12]  487 	mov	r6,a
      0000D3 EB               [12]  488 	mov	a,r3
      0000D4 3D               [12]  489 	addc	a,r5
      0000D5 FD               [12]  490 	mov	r5,a
      0000D6 90r00r06         [24]  491 	mov	dptr,#(_DHT11_Measure_buf_65536_6 + 0x0003)
      0000D9 E0               [24]  492 	movx	a,@dptr
      0000DA FB               [12]  493 	mov	r3,a
      0000DB 33               [12]  494 	rlc	a
      0000DC 95 E0            [12]  495 	subb	a,acc
      0000DE FA               [12]  496 	mov	r2,a
      0000DF EB               [12]  497 	mov	a,r3
      0000E0 2E               [12]  498 	add	a,r6
      0000E1 FE               [12]  499 	mov	r6,a
      0000E2 EA               [12]  500 	mov	a,r2
      0000E3 3D               [12]  501 	addc	a,r5
      0000E4 FD               [12]  502 	mov	r5,a
      0000E5 EF               [12]  503 	mov	a,r7
      0000E6 33               [12]  504 	rlc	a
      0000E7 95 E0            [12]  505 	subb	a,acc
      0000E9 FB               [12]  506 	mov	r3,a
      0000EA EF               [12]  507 	mov	a,r7
      0000EB B5 06 5E         [24]  508 	cjne	a,ar6,00120$
      0000EE EB               [12]  509 	mov	a,r3
      0000EF B5 05 5A         [24]  510 	cjne	a,ar5,00120$
                                    511 ;	.\driver\dht11.c:69: dat->temperature = buf[2];
      0000F2 90r00r00         [24]  512 	mov	dptr,#_DHT11_Measure_dat_65536_5
      0000F5 E0               [24]  513 	movx	a,@dptr
      0000F6 FD               [12]  514 	mov	r5,a
      0000F7 A3               [24]  515 	inc	dptr
      0000F8 E0               [24]  516 	movx	a,@dptr
      0000F9 FE               [12]  517 	mov	r6,a
      0000FA A3               [24]  518 	inc	dptr
      0000FB E0               [24]  519 	movx	a,@dptr
      0000FC FF               [12]  520 	mov	r7,a
      0000FD 74 01            [12]  521 	mov	a,#0x01
      0000FF 2D               [12]  522 	add	a,r5
      000100 F5*00            [12]  523 	mov	_DHT11_Measure_sloc0_1_0,a
      000102 E4               [12]  524 	clr	a
      000103 3E               [12]  525 	addc	a,r6
      000104 F5*01            [12]  526 	mov	(_DHT11_Measure_sloc0_1_0 + 1),a
      000106 8F*02            [24]  527 	mov	(_DHT11_Measure_sloc0_1_0 + 2),r7
      000108 8C 82            [24]  528 	mov	dpl,r4
      00010A C0 07            [24]  529 	push	ar7
      00010C C0 06            [24]  530 	push	ar6
      00010E C0 05            [24]  531 	push	ar5
      000110 12r00r00         [24]  532 	lcall	___schar2fs
      000113 A8 82            [24]  533 	mov	r0,dpl
      000115 AA 83            [24]  534 	mov	r2,dph
      000117 AB F0            [24]  535 	mov	r3,b
      000119 FC               [12]  536 	mov	r4,a
      00011A D0 05            [24]  537 	pop	ar5
      00011C D0 06            [24]  538 	pop	ar6
      00011E D0 07            [24]  539 	pop	ar7
      000120 85*00 82         [24]  540 	mov	dpl,_DHT11_Measure_sloc0_1_0
      000123 85*01 83         [24]  541 	mov	dph,(_DHT11_Measure_sloc0_1_0 + 1)
      000126 85*02 F0         [24]  542 	mov	b,(_DHT11_Measure_sloc0_1_0 + 2)
      000129 E8               [12]  543 	mov	a,r0
      00012A 12r00r00         [24]  544 	lcall	__gptrput
      00012D A3               [24]  545 	inc	dptr
      00012E EA               [12]  546 	mov	a,r2
      00012F 12r00r00         [24]  547 	lcall	__gptrput
      000132 A3               [24]  548 	inc	dptr
      000133 EB               [12]  549 	mov	a,r3
      000134 12r00r00         [24]  550 	lcall	__gptrput
      000137 A3               [24]  551 	inc	dptr
      000138 EC               [12]  552 	mov	a,r4
      000139 12r00r00         [24]  553 	lcall	__gptrput
                                    554 ;	.\driver\dht11.c:70: dat->humidity = buf[0];
      00013C 90r00r03         [24]  555 	mov	dptr,#_DHT11_Measure_buf_65536_6
      00013F E0               [24]  556 	movx	a,@dptr
      000140 FC               [12]  557 	mov	r4,a
      000141 8D 82            [24]  558 	mov	dpl,r5
      000143 8E 83            [24]  559 	mov	dph,r6
      000145 8F F0            [24]  560 	mov	b,r7
      000147 12r00r00         [24]  561 	lcall	__gptrput
      00014A 80 0E            [24]  562 	sjmp	00124$
      00014C                        563 00120$:
                                    564 ;	.\driver\dht11.c:74: errCode = DHT11_VERIFY_ERR;
      00014C 90r00r08         [24]  565 	mov	dptr,#_DHT11_Measure_errCode_65536_6
      00014F 74 02            [12]  566 	mov	a,#0x02
      000151 F0               [24]  567 	movx	@dptr,a
      000152 80 06            [24]  568 	sjmp	00124$
      000154                        569 00123$:
                                    570 ;	.\driver\dht11.c:79: errCode = DHT11_CONNECT_ERR;
      000154 90r00r08         [24]  571 	mov	dptr,#_DHT11_Measure_errCode_65536_6
      000157 74 01            [12]  572 	mov	a,#0x01
      000159 F0               [24]  573 	movx	@dptr,a
      00015A                        574 00124$:
                                    575 ;	.\driver\dht11.c:82: DATA_WRITE(1);
                                    576 ;	assignBit
      00015A D2 91            [12]  577 	setb	_P1_1
                                    578 ;	.\driver\dht11.c:83: _Delay(1);
      00015C 90 00 01         [24]  579 	mov	dptr,#0x0001
      00015F 12r00r00         [24]  580 	lcall	_Delay
                                    581 ;	.\driver\dht11.c:85: return errCode;
      000162 90r00r08         [24]  582 	mov	dptr,#_DHT11_Measure_errCode_65536_6
      000165 E0               [24]  583 	movx	a,@dptr
                                    584 ;	.\driver\dht11.c:86: }
      000166 F5 82            [12]  585 	mov	dpl,a
      000168 22               [24]  586 	ret
                                    587 	.area CSEG    (CODE)
                                    588 	.area CONST   (CODE)
                                    589 	.area XINIT   (CODE)
                                    590 	.area CABS    (ABS,CODE)
