                                      1 ;--------------------------------------------------------
                                      2 ; File Created by SDCC : free open source ANSI-C Compiler
                                      3 ; Version 4.0.0 #11528 (MINGW64)
                                      4 ;--------------------------------------------------------
                                      5 	.module main
                                      6 	.optsdcc -mmcs51 --model-large
                                      7 	
                                      8 ;--------------------------------------------------------
                                      9 ; Public variables in this module
                                     10 ;--------------------------------------------------------
                                     11 	.globl _main
                                     12 	.globl _UART_Handle
                                     13 	.globl _Rom_Init
                                     14 	.globl _UART_Read
                                     15 	.globl _Run
                                     16 	.globl _Tohome
                                     17 	.globl _ROM_Write
                                     18 	.globl _Delay1us
                                     19 	.globl _Delay100us
                                     20 	.globl _Delay100ms
                                     21 	.globl _strstr
                                     22 	.globl _IapProgram
                                     23 	.globl _IapRead
                                     24 	.globl _IapErase
                                     25 	.globl _IapIdle
                                     26 	.globl __IAP_ADDR_TRIG
                                     27 	.globl _Uart2SendStr
                                     28 	.globl _Uart2Send
                                     29 	.globl _Uart2Read
                                     30 	.globl _Uart2Init
                                     31 	.globl _Uart2Isr
                                     32 	.globl _Uart1SendStr
                                     33 	.globl _Uart1Send
                                     34 	.globl _Uart1Read
                                     35 	.globl _Uart1Init
                                     36 	.globl _Uart1Isr
                                     37 	.globl _PCA_Run
                                     38 	.globl _PCA_Init
                                     39 	.globl _PCA_Isr
                                     40 	.globl _CCF0
                                     41 	.globl _CCF1
                                     42 	.globl _CCF2
                                     43 	.globl _CCF3
                                     44 	.globl _CR
                                     45 	.globl _CF
                                     46 	.globl _RI
                                     47 	.globl _TI
                                     48 	.globl _RB8
                                     49 	.globl _TB8
                                     50 	.globl _REN
                                     51 	.globl _SM2
                                     52 	.globl _SM1
                                     53 	.globl _SM0
                                     54 	.globl _IT0
                                     55 	.globl _IE0
                                     56 	.globl _IT1
                                     57 	.globl _IE1
                                     58 	.globl _TR0
                                     59 	.globl _TF0
                                     60 	.globl _TR1
                                     61 	.globl _TF1
                                     62 	.globl _PX0
                                     63 	.globl _PT0
                                     64 	.globl _PX1
                                     65 	.globl _PT1
                                     66 	.globl _PS
                                     67 	.globl _PADC
                                     68 	.globl _PLVD
                                     69 	.globl _PPCA
                                     70 	.globl _EX0
                                     71 	.globl _ET0
                                     72 	.globl _EX1
                                     73 	.globl _ET1
                                     74 	.globl _ES
                                     75 	.globl _EADC
                                     76 	.globl _ELVD
                                     77 	.globl _EA
                                     78 	.globl _P77
                                     79 	.globl _P76
                                     80 	.globl _P75
                                     81 	.globl _P74
                                     82 	.globl _P73
                                     83 	.globl _P72
                                     84 	.globl _P71
                                     85 	.globl _P70
                                     86 	.globl _P67
                                     87 	.globl _P66
                                     88 	.globl _P65
                                     89 	.globl _P64
                                     90 	.globl _P63
                                     91 	.globl _P62
                                     92 	.globl _P61
                                     93 	.globl _P60
                                     94 	.globl _P57
                                     95 	.globl _P56
                                     96 	.globl _P55
                                     97 	.globl _P54
                                     98 	.globl _P53
                                     99 	.globl _P52
                                    100 	.globl _P51
                                    101 	.globl _P50
                                    102 	.globl _P47
                                    103 	.globl _P46
                                    104 	.globl _P45
                                    105 	.globl _P44
                                    106 	.globl _P43
                                    107 	.globl _P42
                                    108 	.globl _P41
                                    109 	.globl _P40
                                    110 	.globl _P37
                                    111 	.globl _P36
                                    112 	.globl _P35
                                    113 	.globl _P34
                                    114 	.globl _P33
                                    115 	.globl _P32
                                    116 	.globl _P31
                                    117 	.globl _P30
                                    118 	.globl _P27
                                    119 	.globl _P26
                                    120 	.globl _P25
                                    121 	.globl _P24
                                    122 	.globl _P23
                                    123 	.globl _P22
                                    124 	.globl _P21
                                    125 	.globl _P20
                                    126 	.globl _P17
                                    127 	.globl _P16
                                    128 	.globl _P15
                                    129 	.globl _P14
                                    130 	.globl _P13
                                    131 	.globl _P12
                                    132 	.globl _P11
                                    133 	.globl _P10
                                    134 	.globl _P07
                                    135 	.globl _P06
                                    136 	.globl _P05
                                    137 	.globl _P04
                                    138 	.globl _P03
                                    139 	.globl _P02
                                    140 	.globl _P01
                                    141 	.globl _P00
                                    142 	.globl _P
                                    143 	.globl _F1
                                    144 	.globl _OV
                                    145 	.globl _RS0
                                    146 	.globl _RS1
                                    147 	.globl _F0
                                    148 	.globl _AC
                                    149 	.globl _CY
                                    150 	.globl _PWMCR
                                    151 	.globl _PWMFDCR
                                    152 	.globl _PWMIF
                                    153 	.globl _PWMCFG
                                    154 	.globl _PCA_PWM3
                                    155 	.globl _PCA_PWM2
                                    156 	.globl _PCA_PWM1
                                    157 	.globl _PCA_PWM0
                                    158 	.globl _CCAP3H
                                    159 	.globl _CCAP2H
                                    160 	.globl _CCAP1H
                                    161 	.globl _CCAP0H
                                    162 	.globl _CCAP3L
                                    163 	.globl _CCAP2L
                                    164 	.globl _CCAP1L
                                    165 	.globl _CCAP0L
                                    166 	.globl _CCAPM3
                                    167 	.globl _CCAPM2
                                    168 	.globl _CCAPM1
                                    169 	.globl _CCAPM0
                                    170 	.globl _CH
                                    171 	.globl _CL
                                    172 	.globl _CMOD
                                    173 	.globl _CCON
                                    174 	.globl _CMPCR2
                                    175 	.globl _CMPCR1
                                    176 	.globl _ISP_CONTR
                                    177 	.globl _ISP_TRIG
                                    178 	.globl _ISP_CMD
                                    179 	.globl _ISP_ADDRL
                                    180 	.globl _ISP_ADDRH
                                    181 	.globl _ISP_DATA
                                    182 	.globl _IAP_CONTR
                                    183 	.globl _IAP_TRIG
                                    184 	.globl _IAP_CMD
                                    185 	.globl _IAP_ADDRL
                                    186 	.globl _IAP_ADDRH
                                    187 	.globl _IAP_DATA
                                    188 	.globl _SPDAT
                                    189 	.globl _SPCTL
                                    190 	.globl _SPSTAT
                                    191 	.globl _ADCCFG
                                    192 	.globl _ADC_RESL
                                    193 	.globl _ADC_RES
                                    194 	.globl _ADC_CONTR
                                    195 	.globl _SADEN
                                    196 	.globl _SADDR
                                    197 	.globl _S4BUF
                                    198 	.globl _S4CON
                                    199 	.globl _S3BUF
                                    200 	.globl _S3CON
                                    201 	.globl _S2BUF
                                    202 	.globl _S2CON
                                    203 	.globl _SBUF
                                    204 	.globl _SCON
                                    205 	.globl _WDT_CONTR
                                    206 	.globl _WKTCH
                                    207 	.globl _WKTCL
                                    208 	.globl _TL2
                                    209 	.globl _TH2
                                    210 	.globl _TL3
                                    211 	.globl _TH3
                                    212 	.globl _TL4
                                    213 	.globl _TH4
                                    214 	.globl _T2L
                                    215 	.globl _T2H
                                    216 	.globl _T3L
                                    217 	.globl _T3H
                                    218 	.globl _T4L
                                    219 	.globl _T4H
                                    220 	.globl _T4T3M
                                    221 	.globl _TH1
                                    222 	.globl _TH0
                                    223 	.globl _TL1
                                    224 	.globl _TL0
                                    225 	.globl _TMOD
                                    226 	.globl _TCON
                                    227 	.globl _AUXINTIF
                                    228 	.globl _INTCLKO
                                    229 	.globl _IP2H
                                    230 	.globl _IPH
                                    231 	.globl _IP2
                                    232 	.globl _IP
                                    233 	.globl _IE2
                                    234 	.globl _IE
                                    235 	.globl _RSTCFG
                                    236 	.globl _VOCTRL
                                    237 	.globl _P_SW2
                                    238 	.globl _P_SW1
                                    239 	.globl _BUS_SPEED
                                    240 	.globl _AUXR2
                                    241 	.globl _AUXR
                                    242 	.globl _PCON
                                    243 	.globl _P7M1
                                    244 	.globl _P7M0
                                    245 	.globl _P6M1
                                    246 	.globl _P6M0
                                    247 	.globl _P5M1
                                    248 	.globl _P5M0
                                    249 	.globl _P4M1
                                    250 	.globl _P4M0
                                    251 	.globl _P3M1
                                    252 	.globl _P3M0
                                    253 	.globl _P2M1
                                    254 	.globl _P2M0
                                    255 	.globl _P1M1
                                    256 	.globl _P1M0
                                    257 	.globl _P0M1
                                    258 	.globl _P0M0
                                    259 	.globl _P7
                                    260 	.globl _P6
                                    261 	.globl _P5
                                    262 	.globl _P4
                                    263 	.globl _P3
                                    264 	.globl _P2
                                    265 	.globl _P1
                                    266 	.globl _P0
                                    267 	.globl _DPH1
                                    268 	.globl _DPL1
                                    269 	.globl _DPS
                                    270 	.globl _TA
                                    271 	.globl _DPH
                                    272 	.globl _DPL
                                    273 	.globl _SP
                                    274 	.globl _PSW
                                    275 	.globl _B
                                    276 	.globl _ACC
                                    277 	.globl _uart2end
                                    278 	.globl _uart1end
                                    279 	.globl _uart2num
                                    280 	.globl _uart1num
                                    281 	.globl _uart2buff
                                    282 	.globl _uart1buff
                                    283 	.globl _Page
                                    284 	.globl _Page_03
                                    285 	.globl _Page_02
                                    286 	.globl _Page_01
                                    287 	.globl _Page_00
                                    288 	.globl _tests
                                    289 	.globl _Button_09
                                    290 	.globl _Button_08
                                    291 	.globl _Button_07
                                    292 	.globl _Button_06
                                    293 	.globl _Button_05
                                    294 	.globl _Button_04
                                    295 	.globl _Button_03
                                    296 	.globl _Button_02
                                    297 	.globl _Button_01
                                    298 	.globl _Button_00
                                    299 	.globl _PCA_state
                                    300 	.globl _value_max
                                    301 	.globl _value_count
                                    302 	.globl _value_hz
                                    303 	.globl _ii
                                    304 	.globl _i
                                    305 	.globl _buf
                                    306 	.globl _IapProgram_PARM_2
                                    307 	.globl _motor_circle
                                    308 	.globl _value
                                    309 	.globl _uart4
                                    310 	.globl _uart3
                                    311 	.globl _uart2
                                    312 	.globl _uart1
                                    313 	.globl _PCA_Stop
                                    314 ;--------------------------------------------------------
                                    315 ; special function registers
                                    316 ;--------------------------------------------------------
                                    317 	.area RSEG    (ABS,DATA)
      000000                        318 	.org 0x0000
                           0000E0   319 _ACC	=	0x00e0
                           0000F0   320 _B	=	0x00f0
                           0000D0   321 _PSW	=	0x00d0
                           000081   322 _SP	=	0x0081
                           000082   323 _DPL	=	0x0082
                           000083   324 _DPH	=	0x0083
                           0000AE   325 _TA	=	0x00ae
                           0000E3   326 _DPS	=	0x00e3
                           0000E4   327 _DPL1	=	0x00e4
                           0000E5   328 _DPH1	=	0x00e5
                           000080   329 _P0	=	0x0080
                           000090   330 _P1	=	0x0090
                           0000A0   331 _P2	=	0x00a0
                           0000B0   332 _P3	=	0x00b0
                           0000C0   333 _P4	=	0x00c0
                           0000C8   334 _P5	=	0x00c8
                           0000E8   335 _P6	=	0x00e8
                           0000F8   336 _P7	=	0x00f8
                           000094   337 _P0M0	=	0x0094
                           000093   338 _P0M1	=	0x0093
                           000092   339 _P1M0	=	0x0092
                           000091   340 _P1M1	=	0x0091
                           000096   341 _P2M0	=	0x0096
                           000095   342 _P2M1	=	0x0095
                           0000B2   343 _P3M0	=	0x00b2
                           0000B1   344 _P3M1	=	0x00b1
                           0000B4   345 _P4M0	=	0x00b4
                           0000B3   346 _P4M1	=	0x00b3
                           0000CA   347 _P5M0	=	0x00ca
                           0000C9   348 _P5M1	=	0x00c9
                           0000CC   349 _P6M0	=	0x00cc
                           0000CB   350 _P6M1	=	0x00cb
                           0000E2   351 _P7M0	=	0x00e2
                           0000E1   352 _P7M1	=	0x00e1
                           000087   353 _PCON	=	0x0087
                           00008E   354 _AUXR	=	0x008e
                           000097   355 _AUXR2	=	0x0097
                           0000A1   356 _BUS_SPEED	=	0x00a1
                           0000A2   357 _P_SW1	=	0x00a2
                           0000BA   358 _P_SW2	=	0x00ba
                           0000BB   359 _VOCTRL	=	0x00bb
                           0000FF   360 _RSTCFG	=	0x00ff
                           0000A8   361 _IE	=	0x00a8
                           0000AF   362 _IE2	=	0x00af
                           0000B8   363 _IP	=	0x00b8
                           0000B5   364 _IP2	=	0x00b5
                           0000B7   365 _IPH	=	0x00b7
                           0000B6   366 _IP2H	=	0x00b6
                           00008F   367 _INTCLKO	=	0x008f
                           0000EF   368 _AUXINTIF	=	0x00ef
                           000088   369 _TCON	=	0x0088
                           000089   370 _TMOD	=	0x0089
                           00008A   371 _TL0	=	0x008a
                           00008B   372 _TL1	=	0x008b
                           00008C   373 _TH0	=	0x008c
                           00008D   374 _TH1	=	0x008d
                           0000D1   375 _T4T3M	=	0x00d1
                           0000D2   376 _T4H	=	0x00d2
                           0000D3   377 _T4L	=	0x00d3
                           0000D4   378 _T3H	=	0x00d4
                           0000D5   379 _T3L	=	0x00d5
                           0000D6   380 _T2H	=	0x00d6
                           0000D7   381 _T2L	=	0x00d7
                           0000D2   382 _TH4	=	0x00d2
                           0000D3   383 _TL4	=	0x00d3
                           0000D4   384 _TH3	=	0x00d4
                           0000D5   385 _TL3	=	0x00d5
                           0000D6   386 _TH2	=	0x00d6
                           0000D7   387 _TL2	=	0x00d7
                           0000AA   388 _WKTCL	=	0x00aa
                           0000AB   389 _WKTCH	=	0x00ab
                           0000C1   390 _WDT_CONTR	=	0x00c1
                           000098   391 _SCON	=	0x0098
                           000099   392 _SBUF	=	0x0099
                           00009A   393 _S2CON	=	0x009a
                           00009B   394 _S2BUF	=	0x009b
                           0000AC   395 _S3CON	=	0x00ac
                           0000AD   396 _S3BUF	=	0x00ad
                           000084   397 _S4CON	=	0x0084
                           000085   398 _S4BUF	=	0x0085
                           0000A9   399 _SADDR	=	0x00a9
                           0000B9   400 _SADEN	=	0x00b9
                           0000BC   401 _ADC_CONTR	=	0x00bc
                           0000BD   402 _ADC_RES	=	0x00bd
                           0000BE   403 _ADC_RESL	=	0x00be
                           0000DE   404 _ADCCFG	=	0x00de
                           0000CD   405 _SPSTAT	=	0x00cd
                           0000CE   406 _SPCTL	=	0x00ce
                           0000CF   407 _SPDAT	=	0x00cf
                           0000C2   408 _IAP_DATA	=	0x00c2
                           0000C3   409 _IAP_ADDRH	=	0x00c3
                           0000C4   410 _IAP_ADDRL	=	0x00c4
                           0000C5   411 _IAP_CMD	=	0x00c5
                           0000C6   412 _IAP_TRIG	=	0x00c6
                           0000C7   413 _IAP_CONTR	=	0x00c7
                           0000C2   414 _ISP_DATA	=	0x00c2
                           0000C3   415 _ISP_ADDRH	=	0x00c3
                           0000C4   416 _ISP_ADDRL	=	0x00c4
                           0000C5   417 _ISP_CMD	=	0x00c5
                           0000C6   418 _ISP_TRIG	=	0x00c6
                           0000C7   419 _ISP_CONTR	=	0x00c7
                           0000E6   420 _CMPCR1	=	0x00e6
                           0000E7   421 _CMPCR2	=	0x00e7
                           0000D8   422 _CCON	=	0x00d8
                           0000D9   423 _CMOD	=	0x00d9
                           0000E9   424 _CL	=	0x00e9
                           0000F9   425 _CH	=	0x00f9
                           0000DA   426 _CCAPM0	=	0x00da
                           0000DB   427 _CCAPM1	=	0x00db
                           0000DC   428 _CCAPM2	=	0x00dc
                           0000DD   429 _CCAPM3	=	0x00dd
                           0000EA   430 _CCAP0L	=	0x00ea
                           0000EB   431 _CCAP1L	=	0x00eb
                           0000EC   432 _CCAP2L	=	0x00ec
                           0000ED   433 _CCAP3L	=	0x00ed
                           0000FA   434 _CCAP0H	=	0x00fa
                           0000FB   435 _CCAP1H	=	0x00fb
                           0000FC   436 _CCAP2H	=	0x00fc
                           0000FD   437 _CCAP3H	=	0x00fd
                           0000F2   438 _PCA_PWM0	=	0x00f2
                           0000F3   439 _PCA_PWM1	=	0x00f3
                           0000F4   440 _PCA_PWM2	=	0x00f4
                           0000F5   441 _PCA_PWM3	=	0x00f5
                           0000F1   442 _PWMCFG	=	0x00f1
                           0000F6   443 _PWMIF	=	0x00f6
                           0000F7   444 _PWMFDCR	=	0x00f7
                           0000FE   445 _PWMCR	=	0x00fe
                                    446 ;--------------------------------------------------------
                                    447 ; special function bits
                                    448 ;--------------------------------------------------------
                                    449 	.area RSEG    (ABS,DATA)
      000000                        450 	.org 0x0000
                           0000D7   451 _CY	=	0x00d7
                           0000D6   452 _AC	=	0x00d6
                           0000D5   453 _F0	=	0x00d5
                           0000D4   454 _RS1	=	0x00d4
                           0000D3   455 _RS0	=	0x00d3
                           0000D2   456 _OV	=	0x00d2
                           0000D1   457 _F1	=	0x00d1
                           0000D0   458 _P	=	0x00d0
                           000080   459 _P00	=	0x0080
                           000081   460 _P01	=	0x0081
                           000082   461 _P02	=	0x0082
                           000083   462 _P03	=	0x0083
                           000084   463 _P04	=	0x0084
                           000085   464 _P05	=	0x0085
                           000086   465 _P06	=	0x0086
                           000087   466 _P07	=	0x0087
                           000090   467 _P10	=	0x0090
                           000091   468 _P11	=	0x0091
                           000092   469 _P12	=	0x0092
                           000093   470 _P13	=	0x0093
                           000094   471 _P14	=	0x0094
                           000095   472 _P15	=	0x0095
                           000096   473 _P16	=	0x0096
                           000097   474 _P17	=	0x0097
                           0000A0   475 _P20	=	0x00a0
                           0000A1   476 _P21	=	0x00a1
                           0000A2   477 _P22	=	0x00a2
                           0000A3   478 _P23	=	0x00a3
                           0000A4   479 _P24	=	0x00a4
                           0000A5   480 _P25	=	0x00a5
                           0000A6   481 _P26	=	0x00a6
                           0000A7   482 _P27	=	0x00a7
                           0000B0   483 _P30	=	0x00b0
                           0000B1   484 _P31	=	0x00b1
                           0000B2   485 _P32	=	0x00b2
                           0000B3   486 _P33	=	0x00b3
                           0000B4   487 _P34	=	0x00b4
                           0000B5   488 _P35	=	0x00b5
                           0000B6   489 _P36	=	0x00b6
                           0000B7   490 _P37	=	0x00b7
                           0000C0   491 _P40	=	0x00c0
                           0000C1   492 _P41	=	0x00c1
                           0000C2   493 _P42	=	0x00c2
                           0000C3   494 _P43	=	0x00c3
                           0000C4   495 _P44	=	0x00c4
                           0000C5   496 _P45	=	0x00c5
                           0000C6   497 _P46	=	0x00c6
                           0000C7   498 _P47	=	0x00c7
                           0000C8   499 _P50	=	0x00c8
                           0000C9   500 _P51	=	0x00c9
                           0000CA   501 _P52	=	0x00ca
                           0000CB   502 _P53	=	0x00cb
                           0000CC   503 _P54	=	0x00cc
                           0000CD   504 _P55	=	0x00cd
                           0000CE   505 _P56	=	0x00ce
                           0000CF   506 _P57	=	0x00cf
                           0000E8   507 _P60	=	0x00e8
                           0000E9   508 _P61	=	0x00e9
                           0000EA   509 _P62	=	0x00ea
                           0000EB   510 _P63	=	0x00eb
                           0000EC   511 _P64	=	0x00ec
                           0000ED   512 _P65	=	0x00ed
                           0000EE   513 _P66	=	0x00ee
                           0000EF   514 _P67	=	0x00ef
                           0000F8   515 _P70	=	0x00f8
                           0000F9   516 _P71	=	0x00f9
                           0000FA   517 _P72	=	0x00fa
                           0000FB   518 _P73	=	0x00fb
                           0000FC   519 _P74	=	0x00fc
                           0000FD   520 _P75	=	0x00fd
                           0000FE   521 _P76	=	0x00fe
                           0000FF   522 _P77	=	0x00ff
                           0000AF   523 _EA	=	0x00af
                           0000AE   524 _ELVD	=	0x00ae
                           0000AD   525 _EADC	=	0x00ad
                           0000AC   526 _ES	=	0x00ac
                           0000AB   527 _ET1	=	0x00ab
                           0000AA   528 _EX1	=	0x00aa
                           0000A9   529 _ET0	=	0x00a9
                           0000A8   530 _EX0	=	0x00a8
                           0000BF   531 _PPCA	=	0x00bf
                           0000BE   532 _PLVD	=	0x00be
                           0000BD   533 _PADC	=	0x00bd
                           0000BC   534 _PS	=	0x00bc
                           0000BB   535 _PT1	=	0x00bb
                           0000BA   536 _PX1	=	0x00ba
                           0000B9   537 _PT0	=	0x00b9
                           0000B8   538 _PX0	=	0x00b8
                           00008F   539 _TF1	=	0x008f
                           00008E   540 _TR1	=	0x008e
                           00008D   541 _TF0	=	0x008d
                           00008C   542 _TR0	=	0x008c
                           00008B   543 _IE1	=	0x008b
                           00008A   544 _IT1	=	0x008a
                           000089   545 _IE0	=	0x0089
                           000088   546 _IT0	=	0x0088
                           00009F   547 _SM0	=	0x009f
                           00009E   548 _SM1	=	0x009e
                           00009D   549 _SM2	=	0x009d
                           00009C   550 _REN	=	0x009c
                           00009B   551 _TB8	=	0x009b
                           00009A   552 _RB8	=	0x009a
                           000099   553 _TI	=	0x0099
                           000098   554 _RI	=	0x0098
                           0000DF   555 _CF	=	0x00df
                           0000DE   556 _CR	=	0x00de
                           0000DB   557 _CCF3	=	0x00db
                           0000DA   558 _CCF2	=	0x00da
                           0000D9   559 _CCF1	=	0x00d9
                           0000D8   560 _CCF0	=	0x00d8
                                    561 ;--------------------------------------------------------
                                    562 ; overlayable register banks
                                    563 ;--------------------------------------------------------
                                    564 	.area REG_BANK_0	(REL,OVR,DATA)
      000000                        565 	.ds 8
                                    566 ;--------------------------------------------------------
                                    567 ; overlayable bit register bank
                                    568 ;--------------------------------------------------------
                                    569 	.area BIT_BANK	(REL,OVR,DATA)
      000000                        570 bits:
      000000                        571 	.ds 1
                           008000   572 	b0 = bits[0]
                           008100   573 	b1 = bits[1]
                           008200   574 	b2 = bits[2]
                           008300   575 	b3 = bits[3]
                           008400   576 	b4 = bits[4]
                           008500   577 	b5 = bits[5]
                           008600   578 	b6 = bits[6]
                           008700   579 	b7 = bits[7]
                                    580 ;--------------------------------------------------------
                                    581 ; internal ram data
                                    582 ;--------------------------------------------------------
                                    583 	.area DSEG    (DATA)
                                    584 ;--------------------------------------------------------
                                    585 ; overlayable items in internal ram 
                                    586 ;--------------------------------------------------------
                                    587 ;--------------------------------------------------------
                                    588 ; Stack segment in internal ram 
                                    589 ;--------------------------------------------------------
                                    590 	.area	SSEG
      000000                        591 __start__stack:
      000000                        592 	.ds	1
                                    593 
                                    594 ;--------------------------------------------------------
                                    595 ; indirectly addressable internal ram data
                                    596 ;--------------------------------------------------------
                                    597 	.area ISEG    (DATA)
                                    598 ;--------------------------------------------------------
                                    599 ; absolute internal ram data
                                    600 ;--------------------------------------------------------
                                    601 	.area IABS    (ABS,DATA)
                                    602 	.area IABS    (ABS,DATA)
                                    603 ;--------------------------------------------------------
                                    604 ; bit data
                                    605 ;--------------------------------------------------------
                                    606 	.area BSEG    (BIT)
                                    607 ;--------------------------------------------------------
                                    608 ; paged external ram data
                                    609 ;--------------------------------------------------------
                                    610 	.area PSEG    (PAG,XDATA)
                                    611 ;--------------------------------------------------------
                                    612 ; external ram data
                                    613 ;--------------------------------------------------------
                                    614 	.area XSEG    (XDATA)
      000000                        615 _uart1::
      000000                        616 	.ds 19
      000013                        617 _uart2::
      000013                        618 	.ds 19
      000026                        619 _uart3::
      000026                        620 	.ds 19
      000039                        621 _uart4::
      000039                        622 	.ds 19
      00004C                        623 _value::
      00004C                        624 	.ds 2
      00004E                        625 _motor_circle::
      00004E                        626 	.ds 1
      00004F                        627 _PCA_Run_v_65536_22:
      00004F                        628 	.ds 2
      000051                        629 _Uart1Send_dat_65536_31:
      000051                        630 	.ds 1
      000052                        631 _Uart1SendStr_p_65536_33:
      000052                        632 	.ds 3
      000055                        633 _Uart2Send_dat_65536_42:
      000055                        634 	.ds 1
      000056                        635 _Uart2SendStr_p_65536_44:
      000056                        636 	.ds 3
      000059                        637 __IAP_ADDR_TRIG_address_65536_47:
      000059                        638 	.ds 2
      00005B                        639 _IapErase_address_65536_50:
      00005B                        640 	.ds 2
      00005D                        641 _IapRead_address_65536_52:
      00005D                        642 	.ds 2
      00005F                        643 _IapRead_dat_65536_53:
      00005F                        644 	.ds 1
      000060                        645 _IapProgram_PARM_2:
      000060                        646 	.ds 1
      000061                        647 _IapProgram_address_65536_54:
      000061                        648 	.ds 2
      000063                        649 _buf::
      000063                        650 	.ds 1
      000064                        651 _i::
      000064                        652 	.ds 2
      000066                        653 _ii::
      000066                        654 	.ds 2
      000068                        655 _ROM_Write_h_65536_86:
      000068                        656 	.ds 1
                                    657 ;--------------------------------------------------------
                                    658 ; absolute external ram data
                                    659 ;--------------------------------------------------------
                                    660 	.area XABS    (ABS,XDATA)
                                    661 ;--------------------------------------------------------
                                    662 ; external initialized ram data
                                    663 ;--------------------------------------------------------
                                    664 	.area XISEG   (XDATA)
      000000                        665 _value_hz::
      000000                        666 	.ds 2
      000002                        667 _value_count::
      000002                        668 	.ds 2
      000004                        669 _value_max::
      000004                        670 	.ds 2
      000006                        671 _PCA_state::
      000006                        672 	.ds 2
      000008                        673 _Button_00::
      000008                        674 	.ds 7
      00000F                        675 _Button_01::
      00000F                        676 	.ds 7
      000016                        677 _Button_02::
      000016                        678 	.ds 7
      00001D                        679 _Button_03::
      00001D                        680 	.ds 7
      000024                        681 _Button_04::
      000024                        682 	.ds 7
      00002B                        683 _Button_05::
      00002B                        684 	.ds 7
      000032                        685 _Button_06::
      000032                        686 	.ds 7
      000039                        687 _Button_07::
      000039                        688 	.ds 7
      000040                        689 _Button_08::
      000040                        690 	.ds 7
      000047                        691 _Button_09::
      000047                        692 	.ds 7
      00004E                        693 _tests::
      00004E                        694 	.ds 7
      000055                        695 _Page_00::
      000055                        696 	.ds 8
      00005D                        697 _Page_01::
      00005D                        698 	.ds 8
      000065                        699 _Page_02::
      000065                        700 	.ds 8
      00006D                        701 _Page_03::
      00006D                        702 	.ds 8
      000075                        703 _Page::
      000075                        704 	.ds 1
      000076                        705 _uart1buff::
      000076                        706 	.ds 20
      00008A                        707 _uart2buff::
      00008A                        708 	.ds 20
      00009E                        709 _uart1num::
      00009E                        710 	.ds 1
      00009F                        711 _uart2num::
      00009F                        712 	.ds 1
      0000A0                        713 _uart1end::
      0000A0                        714 	.ds 1
      0000A1                        715 _uart2end::
      0000A1                        716 	.ds 1
                                    717 	.area HOME    (CODE)
                                    718 	.area GSINIT0 (CODE)
                                    719 	.area GSINIT1 (CODE)
                                    720 	.area GSINIT2 (CODE)
                                    721 	.area GSINIT3 (CODE)
                                    722 	.area GSINIT4 (CODE)
                                    723 	.area GSINIT5 (CODE)
                                    724 	.area GSINIT  (CODE)
                                    725 	.area GSFINAL (CODE)
                                    726 	.area CSEG    (CODE)
                                    727 ;--------------------------------------------------------
                                    728 ; interrupt vector 
                                    729 ;--------------------------------------------------------
                                    730 	.area HOME    (CODE)
      000000                        731 __interrupt_vect:
      000000 02r00r00         [24]  732 	ljmp	__sdcc_gsinit_startup
      000003 32               [24]  733 	reti
      000004                        734 	.ds	7
      00000B 32               [24]  735 	reti
      00000C                        736 	.ds	7
      000013 32               [24]  737 	reti
      000014                        738 	.ds	7
      00001B 32               [24]  739 	reti
      00001C                        740 	.ds	7
      000023 02r01rA1         [24]  741 	ljmp	_Uart1Isr
      000026                        742 	.ds	5
      00002B 32               [24]  743 	reti
      00002C                        744 	.ds	7
      000033 32               [24]  745 	reti
      000034                        746 	.ds	7
      00003B 02r00r00         [24]  747 	ljmp	_PCA_Isr
      00003E                        748 	.ds	5
      000043 02r02rA7         [24]  749 	ljmp	_Uart2Isr
                                    750 ;--------------------------------------------------------
                                    751 ; global & static initialisations
                                    752 ;--------------------------------------------------------
                                    753 	.area HOME    (CODE)
                                    754 	.area GSINIT  (CODE)
                                    755 	.area GSFINAL (CODE)
                                    756 	.area GSINIT  (CODE)
                                    757 	.globl __sdcc_gsinit_startup
                                    758 	.globl __sdcc_program_startup
                                    759 	.globl __start__stack
                                    760 	.globl __mcs51_genXINIT
                                    761 	.globl __mcs51_genXRAMCLEAR
                                    762 	.globl __mcs51_genRAMCLEAR
                                    763 	.area GSFINAL (CODE)
      000000 02r00r46         [24]  764 	ljmp	__sdcc_program_startup
                                    765 ;--------------------------------------------------------
                                    766 ; Home
                                    767 ;--------------------------------------------------------
                                    768 	.area HOME    (CODE)
                                    769 	.area HOME    (CODE)
      000046                        770 __sdcc_program_startup:
      000046 02r07rDA         [24]  771 	ljmp	_main
                                    772 ;	return from main will return to caller
                                    773 ;--------------------------------------------------------
                                    774 ; code
                                    775 ;--------------------------------------------------------
                                    776 	.area CSEG    (CODE)
                                    777 ;------------------------------------------------------------
                                    778 ;Allocation info for local variables in function 'PCA_Isr'
                                    779 ;------------------------------------------------------------
                                    780 ;	./lib/PCA.h:19: void PCA_Isr() __interrupt(PCA_VECTOR)
                                    781 ;	-----------------------------------------
                                    782 ;	 function PCA_Isr
                                    783 ;	-----------------------------------------
      000000                        784 _PCA_Isr:
                           000007   785 	ar7 = 0x07
                           000006   786 	ar6 = 0x06
                           000005   787 	ar5 = 0x05
                           000004   788 	ar4 = 0x04
                           000003   789 	ar3 = 0x03
                           000002   790 	ar2 = 0x02
                           000001   791 	ar1 = 0x01
                           000000   792 	ar0 = 0x00
      000000 C0*00            [24]  793 	push	bits
      000002 C0 E0            [24]  794 	push	acc
      000004 C0 F0            [24]  795 	push	b
      000006 C0 82            [24]  796 	push	dpl
      000008 C0 83            [24]  797 	push	dph
      00000A C0 07            [24]  798 	push	(0+7)
      00000C C0 06            [24]  799 	push	(0+6)
      00000E C0 05            [24]  800 	push	(0+5)
      000010 C0 04            [24]  801 	push	(0+4)
      000012 C0 03            [24]  802 	push	(0+3)
      000014 C0 02            [24]  803 	push	(0+2)
      000016 C0 01            [24]  804 	push	(0+1)
      000018 C0 00            [24]  805 	push	(0+0)
      00001A C0 D0            [24]  806 	push	psw
      00001C 75 D0 00         [24]  807 	mov	psw,#0x00
                                    808 ;	./lib/PCA.h:21: CCAP0L = value;
      00001F 90r00r4C         [24]  809 	mov	dptr,#_value
      000022 E0               [24]  810 	movx	a,@dptr
      000023 FE               [12]  811 	mov	r6,a
      000024 A3               [24]  812 	inc	dptr
      000025 E0               [24]  813 	movx	a,@dptr
      000026 FF               [12]  814 	mov	r7,a
      000027 8E EA            [24]  815 	mov	_CCAP0L,r6
                                    816 ;	./lib/PCA.h:22: CCAP0H = value >> 8;
      000029 8F FA            [24]  817 	mov	_CCAP0H,r7
                                    818 ;	./lib/PCA.h:23: value += HZ(value_hz);
      00002B 90r00r00         [24]  819 	mov	dptr,#_value_hz
      00002E E0               [24]  820 	movx	a,@dptr
      00002F FC               [12]  821 	mov	r4,a
      000030 A3               [24]  822 	inc	dptr
      000031 E0               [24]  823 	movx	a,@dptr
      000032 FD               [12]  824 	mov	r5,a
      000033 90r00r00         [24]  825 	mov	dptr,#__divslong_PARM_2
      000036 EC               [12]  826 	mov	a,r4
      000037 F0               [24]  827 	movx	@dptr,a
      000038 ED               [12]  828 	mov	a,r5
      000039 A3               [24]  829 	inc	dptr
      00003A F0               [24]  830 	movx	@dptr,a
      00003B E4               [12]  831 	clr	a
      00003C A3               [24]  832 	inc	dptr
      00003D F0               [24]  833 	movx	@dptr,a
      00003E A3               [24]  834 	inc	dptr
      00003F F0               [24]  835 	movx	@dptr,a
      000040 90 36 00         [24]  836 	mov	dptr,#0x3600
      000043 75 F0 6E         [24]  837 	mov	b,#0x6e
      000046 74 01            [12]  838 	mov	a,#0x01
      000048 C0 07            [24]  839 	push	ar7
      00004A C0 06            [24]  840 	push	ar6
      00004C 12r00r00         [24]  841 	lcall	__divslong
      00004F AA 82            [24]  842 	mov	r2,dpl
      000051 AB 83            [24]  843 	mov	r3,dph
      000053 D0 06            [24]  844 	pop	ar6
      000055 D0 07            [24]  845 	pop	ar7
      000057 90r00r4C         [24]  846 	mov	dptr,#_value
      00005A EA               [12]  847 	mov	a,r2
      00005B 2E               [12]  848 	add	a,r6
      00005C F0               [24]  849 	movx	@dptr,a
      00005D EB               [12]  850 	mov	a,r3
      00005E 3F               [12]  851 	addc	a,r7
      00005F A3               [24]  852 	inc	dptr
      000060 F0               [24]  853 	movx	@dptr,a
                                    854 ;	./lib/PCA.h:24: if (CCF0 != 0)
      000061 30 D8 13         [24]  855 	jnb	_CCF0,00102$
                                    856 ;	./lib/PCA.h:26: value_count += 1;
      000064 90r00r02         [24]  857 	mov	dptr,#_value_count
      000067 E0               [24]  858 	movx	a,@dptr
      000068 FE               [12]  859 	mov	r6,a
      000069 A3               [24]  860 	inc	dptr
      00006A E0               [24]  861 	movx	a,@dptr
      00006B FF               [12]  862 	mov	r7,a
      00006C 90r00r02         [24]  863 	mov	dptr,#_value_count
      00006F 74 01            [12]  864 	mov	a,#0x01
      000071 2E               [12]  865 	add	a,r6
      000072 F0               [24]  866 	movx	@dptr,a
      000073 E4               [12]  867 	clr	a
      000074 3F               [12]  868 	addc	a,r7
      000075 A3               [24]  869 	inc	dptr
      000076 F0               [24]  870 	movx	@dptr,a
      000077                        871 00102$:
                                    872 ;	./lib/PCA.h:28: if (value_count >= value_max)
      000077 90r00r02         [24]  873 	mov	dptr,#_value_count
      00007A E0               [24]  874 	movx	a,@dptr
      00007B FE               [12]  875 	mov	r6,a
      00007C A3               [24]  876 	inc	dptr
      00007D E0               [24]  877 	movx	a,@dptr
      00007E FF               [12]  878 	mov	r7,a
      00007F 90r00r04         [24]  879 	mov	dptr,#_value_max
      000082 E0               [24]  880 	movx	a,@dptr
      000083 FC               [12]  881 	mov	r4,a
      000084 A3               [24]  882 	inc	dptr
      000085 E0               [24]  883 	movx	a,@dptr
      000086 FD               [12]  884 	mov	r5,a
      000087 C3               [12]  885 	clr	c
      000088 EE               [12]  886 	mov	a,r6
      000089 9C               [12]  887 	subb	a,r4
      00008A EF               [12]  888 	mov	a,r7
      00008B 9D               [12]  889 	subb	a,r5
      00008C 40 12            [24]  890 	jc	00104$
                                    891 ;	./lib/PCA.h:30: PCA_Stop();
      00008E 12r01r6B         [24]  892 	lcall	_PCA_Stop
                                    893 ;	./lib/PCA.h:31: value_count = 0;
      000091 90r00r02         [24]  894 	mov	dptr,#_value_count
      000094 E4               [12]  895 	clr	a
      000095 F0               [24]  896 	movx	@dptr,a
      000096 A3               [24]  897 	inc	dptr
      000097 F0               [24]  898 	movx	@dptr,a
                                    899 ;	./lib/PCA.h:32: PCA_state = 1;
      000098 90r00r06         [24]  900 	mov	dptr,#_PCA_state
      00009B 04               [12]  901 	inc	a
      00009C F0               [24]  902 	movx	@dptr,a
      00009D E4               [12]  903 	clr	a
      00009E A3               [24]  904 	inc	dptr
      00009F F0               [24]  905 	movx	@dptr,a
      0000A0                        906 00104$:
                                    907 ;	./lib/PCA.h:34: CCF0 = 0;
                                    908 ;	assignBit
      0000A0 C2 D8            [12]  909 	clr	_CCF0
                                    910 ;	./lib/PCA.h:35: }
      0000A2 D0 D0            [24]  911 	pop	psw
      0000A4 D0 00            [24]  912 	pop	(0+0)
      0000A6 D0 01            [24]  913 	pop	(0+1)
      0000A8 D0 02            [24]  914 	pop	(0+2)
      0000AA D0 03            [24]  915 	pop	(0+3)
      0000AC D0 04            [24]  916 	pop	(0+4)
      0000AE D0 05            [24]  917 	pop	(0+5)
      0000B0 D0 06            [24]  918 	pop	(0+6)
      0000B2 D0 07            [24]  919 	pop	(0+7)
      0000B4 D0 83            [24]  920 	pop	dph
      0000B6 D0 82            [24]  921 	pop	dpl
      0000B8 D0 F0            [24]  922 	pop	b
      0000BA D0 E0            [24]  923 	pop	acc
      0000BC D0*00            [24]  924 	pop	bits
      0000BE 32               [24]  925 	reti
                                    926 ;------------------------------------------------------------
                                    927 ;Allocation info for local variables in function 'PCA_Init'
                                    928 ;------------------------------------------------------------
                                    929 ;	./lib/PCA.h:37: void PCA_Init()
                                    930 ;	-----------------------------------------
                                    931 ;	 function PCA_Init
                                    932 ;	-----------------------------------------
      0000BF                        933 _PCA_Init:
                                    934 ;	./lib/PCA.h:39: CCON = 0x00;
      0000BF 75 D8 00         [24]  935 	mov	_CCON,#0x00
                                    936 ;	./lib/PCA.h:40: CMOD = 0x08; //PCA
      0000C2 75 D9 08         [24]  937 	mov	_CMOD,#0x08
                                    938 ;	./lib/PCA.h:41: CL = 0x00;
      0000C5 75 E9 00         [24]  939 	mov	_CL,#0x00
                                    940 ;	./lib/PCA.h:42: CH = 0x00;
      0000C8 75 F9 00         [24]  941 	mov	_CH,#0x00
                                    942 ;	./lib/PCA.h:43: CCAPM0 = 0x4d; //PCA016
      0000CB 75 DA 4D         [24]  943 	mov	_CCAPM0,#0x4d
                                    944 ;	./lib/PCA.h:44: value = HZ(value_hz);
      0000CE 90r00r00         [24]  945 	mov	dptr,#_value_hz
      0000D1 E0               [24]  946 	movx	a,@dptr
      0000D2 FE               [12]  947 	mov	r6,a
      0000D3 A3               [24]  948 	inc	dptr
      0000D4 E0               [24]  949 	movx	a,@dptr
      0000D5 FF               [12]  950 	mov	r7,a
      0000D6 90r00r00         [24]  951 	mov	dptr,#__divslong_PARM_2
      0000D9 EE               [12]  952 	mov	a,r6
      0000DA F0               [24]  953 	movx	@dptr,a
      0000DB EF               [12]  954 	mov	a,r7
      0000DC A3               [24]  955 	inc	dptr
      0000DD F0               [24]  956 	movx	@dptr,a
      0000DE E4               [12]  957 	clr	a
      0000DF A3               [24]  958 	inc	dptr
      0000E0 F0               [24]  959 	movx	@dptr,a
      0000E1 A3               [24]  960 	inc	dptr
      0000E2 F0               [24]  961 	movx	@dptr,a
      0000E3 90 36 00         [24]  962 	mov	dptr,#0x3600
      0000E6 75 F0 6E         [24]  963 	mov	b,#0x6e
      0000E9 74 01            [12]  964 	mov	a,#0x01
      0000EB 12r00r00         [24]  965 	lcall	__divslong
      0000EE AC 82            [24]  966 	mov	r4,dpl
      0000F0 AD 83            [24]  967 	mov	r5,dph
                                    968 ;	./lib/PCA.h:45: CCAP0L = value;
      0000F2 8C EA            [24]  969 	mov	_CCAP0L,r4
                                    970 ;	./lib/PCA.h:46: CCAP0H = value >> 8;
      0000F4 8D FA            [24]  971 	mov	_CCAP0H,r5
                                    972 ;	./lib/PCA.h:47: value += HZ(value_hz);
      0000F6 EC               [12]  973 	mov	a,r4
      0000F7 2C               [12]  974 	add	a,r4
      0000F8 FC               [12]  975 	mov	r4,a
      0000F9 ED               [12]  976 	mov	a,r5
      0000FA 33               [12]  977 	rlc	a
      0000FB FD               [12]  978 	mov	r5,a
      0000FC 90r00r4C         [24]  979 	mov	dptr,#_value
      0000FF EC               [12]  980 	mov	a,r4
      000100 F0               [24]  981 	movx	@dptr,a
      000101 ED               [12]  982 	mov	a,r5
      000102 A3               [24]  983 	inc	dptr
      000103 F0               [24]  984 	movx	@dptr,a
                                    985 ;	./lib/PCA.h:48: EA = 1;
                                    986 ;	assignBit
      000104 D2 AF            [12]  987 	setb	_EA
                                    988 ;	./lib/PCA.h:49: }
      000106 22               [24]  989 	ret
                                    990 ;------------------------------------------------------------
                                    991 ;Allocation info for local variables in function 'PCA_Run'
                                    992 ;------------------------------------------------------------
                                    993 ;v                         Allocated with name '_PCA_Run_v_65536_22'
                                    994 ;------------------------------------------------------------
                                    995 ;	./lib/PCA.h:51: void PCA_Run(unsigned int v)
                                    996 ;	-----------------------------------------
                                    997 ;	 function PCA_Run
                                    998 ;	-----------------------------------------
      000107                        999 _PCA_Run:
      000107 AF 83            [24] 1000 	mov	r7,dph
      000109 E5 82            [12] 1001 	mov	a,dpl
      00010B 90r00r4F         [24] 1002 	mov	dptr,#_PCA_Run_v_65536_22
      00010E F0               [24] 1003 	movx	@dptr,a
      00010F EF               [12] 1004 	mov	a,r7
      000110 A3               [24] 1005 	inc	dptr
      000111 F0               [24] 1006 	movx	@dptr,a
                                   1007 ;	./lib/PCA.h:53: value_max = v;
      000112 90r00r4F         [24] 1008 	mov	dptr,#_PCA_Run_v_65536_22
      000115 E0               [24] 1009 	movx	a,@dptr
      000116 FE               [12] 1010 	mov	r6,a
      000117 A3               [24] 1011 	inc	dptr
      000118 E0               [24] 1012 	movx	a,@dptr
      000119 FF               [12] 1013 	mov	r7,a
      00011A 90r00r04         [24] 1014 	mov	dptr,#_value_max
      00011D EE               [12] 1015 	mov	a,r6
      00011E F0               [24] 1016 	movx	@dptr,a
      00011F EF               [12] 1017 	mov	a,r7
      000120 A3               [24] 1018 	inc	dptr
      000121 F0               [24] 1019 	movx	@dptr,a
                                   1020 ;	./lib/PCA.h:54: value_count = 0;
      000122 90r00r02         [24] 1021 	mov	dptr,#_value_count
      000125 E4               [12] 1022 	clr	a
      000126 F0               [24] 1023 	movx	@dptr,a
      000127 A3               [24] 1024 	inc	dptr
      000128 F0               [24] 1025 	movx	@dptr,a
                                   1026 ;	./lib/PCA.h:55: PCA_state = 0;
      000129 90r00r06         [24] 1027 	mov	dptr,#_PCA_state
      00012C F0               [24] 1028 	movx	@dptr,a
      00012D A3               [24] 1029 	inc	dptr
      00012E F0               [24] 1030 	movx	@dptr,a
                                   1031 ;	./lib/PCA.h:56: CCAPM0 = 0x4d; //PCA016
      00012F 75 DA 4D         [24] 1032 	mov	_CCAPM0,#0x4d
                                   1033 ;	./lib/PCA.h:57: value = HZ(value_hz);
      000132 90r00r00         [24] 1034 	mov	dptr,#_value_hz
      000135 E0               [24] 1035 	movx	a,@dptr
      000136 FE               [12] 1036 	mov	r6,a
      000137 A3               [24] 1037 	inc	dptr
      000138 E0               [24] 1038 	movx	a,@dptr
      000139 FF               [12] 1039 	mov	r7,a
      00013A 90r00r00         [24] 1040 	mov	dptr,#__divslong_PARM_2
      00013D EE               [12] 1041 	mov	a,r6
      00013E F0               [24] 1042 	movx	@dptr,a
      00013F EF               [12] 1043 	mov	a,r7
      000140 A3               [24] 1044 	inc	dptr
      000141 F0               [24] 1045 	movx	@dptr,a
      000142 E4               [12] 1046 	clr	a
      000143 A3               [24] 1047 	inc	dptr
      000144 F0               [24] 1048 	movx	@dptr,a
      000145 A3               [24] 1049 	inc	dptr
      000146 F0               [24] 1050 	movx	@dptr,a
      000147 90 36 00         [24] 1051 	mov	dptr,#0x3600
      00014A 75 F0 6E         [24] 1052 	mov	b,#0x6e
      00014D 74 01            [12] 1053 	mov	a,#0x01
      00014F 12r00r00         [24] 1054 	lcall	__divslong
      000152 AC 82            [24] 1055 	mov	r4,dpl
      000154 AD 83            [24] 1056 	mov	r5,dph
                                   1057 ;	./lib/PCA.h:58: CCAP0L = value;
      000156 8C EA            [24] 1058 	mov	_CCAP0L,r4
                                   1059 ;	./lib/PCA.h:59: CCAP0H = value >> 8;
      000158 8D FA            [24] 1060 	mov	_CCAP0H,r5
                                   1061 ;	./lib/PCA.h:60: value += HZ(value_hz);
      00015A EC               [12] 1062 	mov	a,r4
      00015B 2C               [12] 1063 	add	a,r4
      00015C FC               [12] 1064 	mov	r4,a
      00015D ED               [12] 1065 	mov	a,r5
      00015E 33               [12] 1066 	rlc	a
      00015F FD               [12] 1067 	mov	r5,a
      000160 90r00r4C         [24] 1068 	mov	dptr,#_value
      000163 EC               [12] 1069 	mov	a,r4
      000164 F0               [24] 1070 	movx	@dptr,a
      000165 ED               [12] 1071 	mov	a,r5
      000166 A3               [24] 1072 	inc	dptr
      000167 F0               [24] 1073 	movx	@dptr,a
                                   1074 ;	./lib/PCA.h:61: CR = 1;
                                   1075 ;	assignBit
      000168 D2 DE            [12] 1076 	setb	_CR
                                   1077 ;	./lib/PCA.h:62: }
      00016A 22               [24] 1078 	ret
                                   1079 ;------------------------------------------------------------
                                   1080 ;Allocation info for local variables in function 'PCA_Stop'
                                   1081 ;------------------------------------------------------------
                                   1082 ;	./lib/PCA.h:64: void PCA_Stop()
                                   1083 ;	-----------------------------------------
                                   1084 ;	 function PCA_Stop
                                   1085 ;	-----------------------------------------
      00016B                       1086 _PCA_Stop:
                                   1087 ;	./lib/PCA.h:66: CCAPM0 = 0x00;
      00016B 75 DA 00         [24] 1088 	mov	_CCAPM0,#0x00
                                   1089 ;	./lib/PCA.h:67: value = HZ(value_hz);
      00016E 90r00r00         [24] 1090 	mov	dptr,#_value_hz
      000171 E0               [24] 1091 	movx	a,@dptr
      000172 FE               [12] 1092 	mov	r6,a
      000173 A3               [24] 1093 	inc	dptr
      000174 E0               [24] 1094 	movx	a,@dptr
      000175 FF               [12] 1095 	mov	r7,a
      000176 90r00r00         [24] 1096 	mov	dptr,#__divslong_PARM_2
      000179 EE               [12] 1097 	mov	a,r6
      00017A F0               [24] 1098 	movx	@dptr,a
      00017B EF               [12] 1099 	mov	a,r7
      00017C A3               [24] 1100 	inc	dptr
      00017D F0               [24] 1101 	movx	@dptr,a
      00017E E4               [12] 1102 	clr	a
      00017F A3               [24] 1103 	inc	dptr
      000180 F0               [24] 1104 	movx	@dptr,a
      000181 A3               [24] 1105 	inc	dptr
      000182 F0               [24] 1106 	movx	@dptr,a
      000183 90 36 00         [24] 1107 	mov	dptr,#0x3600
      000186 75 F0 6E         [24] 1108 	mov	b,#0x6e
      000189 74 01            [12] 1109 	mov	a,#0x01
      00018B 12r00r00         [24] 1110 	lcall	__divslong
      00018E AC 82            [24] 1111 	mov	r4,dpl
      000190 AD 83            [24] 1112 	mov	r5,dph
      000192 90r00r4C         [24] 1113 	mov	dptr,#_value
      000195 EC               [12] 1114 	mov	a,r4
      000196 F0               [24] 1115 	movx	@dptr,a
      000197 ED               [12] 1116 	mov	a,r5
      000198 A3               [24] 1117 	inc	dptr
      000199 F0               [24] 1118 	movx	@dptr,a
                                   1119 ;	./lib/PCA.h:68: CCAP0L = value;
      00019A 8C EA            [24] 1120 	mov	_CCAP0L,r4
                                   1121 ;	./lib/PCA.h:69: CCAP0H = value >> 8;
      00019C 8D FA            [24] 1122 	mov	_CCAP0H,r5
                                   1123 ;	./lib/PCA.h:70: CR = 0;
                                   1124 ;	assignBit
      00019E C2 DE            [12] 1125 	clr	_CR
                                   1126 ;	./lib/PCA.h:71: }
      0001A0 22               [24] 1127 	ret
                                   1128 ;------------------------------------------------------------
                                   1129 ;Allocation info for local variables in function 'Uart1Isr'
                                   1130 ;------------------------------------------------------------
                                   1131 ;	./lib/stc8uart.h:5: void Uart1Isr() __interrupt(UART1_VECTOR)
                                   1132 ;	-----------------------------------------
                                   1133 ;	 function Uart1Isr
                                   1134 ;	-----------------------------------------
      0001A1                       1135 _Uart1Isr:
      0001A1 C0 E0            [24] 1136 	push	acc
      0001A3 C0 82            [24] 1137 	push	dpl
      0001A5 C0 83            [24] 1138 	push	dph
      0001A7 C0 07            [24] 1139 	push	ar7
      0001A9 C0 06            [24] 1140 	push	ar6
      0001AB C0 D0            [24] 1141 	push	psw
      0001AD 75 D0 00         [24] 1142 	mov	psw,#0x00
                                   1143 ;	./lib/stc8uart.h:7: if (TI)
                                   1144 ;	./lib/stc8uart.h:9: TI = 0;
                                   1145 ;	assignBit
      0001B0 10 99 02         [24] 1146 	jbc	_TI,00115$
      0001B3 80 05            [24] 1147 	sjmp	00102$
      0001B5                       1148 00115$:
                                   1149 ;	./lib/stc8uart.h:10: uart1.busy = 0;
      0001B5 90r00r00         [24] 1150 	mov	dptr,#_uart1
      0001B8 E4               [12] 1151 	clr	a
      0001B9 F0               [24] 1152 	movx	@dptr,a
      0001BA                       1153 00102$:
                                   1154 ;	./lib/stc8uart.h:12: if (RI)
                                   1155 ;	./lib/stc8uart.h:14: RI = 0;
                                   1156 ;	assignBit
      0001BA 10 98 02         [24] 1157 	jbc	_RI,00116$
      0001BD 80 20            [24] 1158 	sjmp	00105$
      0001BF                       1159 00116$:
                                   1160 ;	./lib/stc8uart.h:15: uart1.buffer[uart1.wptr++] = SBUF;
      0001BF 90r00r01         [24] 1161 	mov	dptr,#(_uart1 + 0x0001)
      0001C2 E0               [24] 1162 	movx	a,@dptr
      0001C3 FF               [12] 1163 	mov	r7,a
      0001C4 04               [12] 1164 	inc	a
      0001C5 FE               [12] 1165 	mov	r6,a
      0001C6 90r00r01         [24] 1166 	mov	dptr,#(_uart1 + 0x0001)
      0001C9 F0               [24] 1167 	movx	@dptr,a
      0001CA EF               [12] 1168 	mov	a,r7
      0001CB 24r03            [12] 1169 	add	a,#(_uart1 + 0x0003)
      0001CD F5 82            [12] 1170 	mov	dpl,a
      0001CF E4               [12] 1171 	clr	a
      0001D0 34s00            [12] 1172 	addc	a,#((_uart1 + 0x0003) >> 8)
      0001D2 F5 83            [12] 1173 	mov	dph,a
      0001D4 E5 99            [12] 1174 	mov	a,_SBUF
      0001D6 F0               [24] 1175 	movx	@dptr,a
                                   1176 ;	./lib/stc8uart.h:16: uart1.wptr &= 0x0f;
      0001D7 53 06 0F         [24] 1177 	anl	ar6,#0x0f
      0001DA 90r00r01         [24] 1178 	mov	dptr,#(_uart1 + 0x0001)
      0001DD EE               [12] 1179 	mov	a,r6
      0001DE F0               [24] 1180 	movx	@dptr,a
      0001DF                       1181 00105$:
                                   1182 ;	./lib/stc8uart.h:18: }
      0001DF D0 D0            [24] 1183 	pop	psw
      0001E1 D0 06            [24] 1184 	pop	ar6
      0001E3 D0 07            [24] 1185 	pop	ar7
      0001E5 D0 83            [24] 1186 	pop	dph
      0001E7 D0 82            [24] 1187 	pop	dpl
      0001E9 D0 E0            [24] 1188 	pop	acc
      0001EB 32               [24] 1189 	reti
                                   1190 ;	eliminated unneeded push/pop b
                                   1191 ;------------------------------------------------------------
                                   1192 ;Allocation info for local variables in function 'Uart1Init'
                                   1193 ;------------------------------------------------------------
                                   1194 ;	./lib/stc8uart.h:19: void Uart1Init()
                                   1195 ;	-----------------------------------------
                                   1196 ;	 function Uart1Init
                                   1197 ;	-----------------------------------------
      0001EC                       1198 _Uart1Init:
                                   1199 ;	./lib/stc8uart.h:21: SCON = 0x50;
      0001EC 75 98 50         [24] 1200 	mov	_SCON,#0x50
                                   1201 ;	./lib/stc8uart.h:22: TMOD = 0x00;
      0001EF 75 89 00         [24] 1202 	mov	_TMOD,#0x00
                                   1203 ;	./lib/stc8uart.h:23: TL1 = BRT;
      0001F2 75 8B CC         [24] 1204 	mov	_TL1,#0xcc
                                   1205 ;	./lib/stc8uart.h:24: TH1 = BRT >> 8;
      0001F5 75 8D FF         [24] 1206 	mov	_TH1,#0xff
                                   1207 ;	./lib/stc8uart.h:25: TR1 = 1;
                                   1208 ;	assignBit
      0001F8 D2 8E            [12] 1209 	setb	_TR1
                                   1210 ;	./lib/stc8uart.h:26: AUXR |= 0x40;
      0001FA 43 8E 40         [24] 1211 	orl	_AUXR,#0x40
                                   1212 ;	./lib/stc8uart.h:27: uart1.busy = 0;
      0001FD 90r00r00         [24] 1213 	mov	dptr,#_uart1
      000200 E4               [12] 1214 	clr	a
      000201 F0               [24] 1215 	movx	@dptr,a
                                   1216 ;	./lib/stc8uart.h:28: uart1.wptr = 0;
      000202 90r00r01         [24] 1217 	mov	dptr,#(_uart1 + 0x0001)
      000205 F0               [24] 1218 	movx	@dptr,a
                                   1219 ;	./lib/stc8uart.h:29: uart1.rptr = 0;
      000206 90r00r02         [24] 1220 	mov	dptr,#(_uart1 + 0x0002)
      000209 F0               [24] 1221 	movx	@dptr,a
                                   1222 ;	./lib/stc8uart.h:30: }
      00020A 22               [24] 1223 	ret
                                   1224 ;------------------------------------------------------------
                                   1225 ;Allocation info for local variables in function 'Uart1Read'
                                   1226 ;------------------------------------------------------------
                                   1227 ;tmp                       Allocated with name '_Uart1Read_tmp_131072_30'
                                   1228 ;------------------------------------------------------------
                                   1229 ;	./lib/stc8uart.h:32: char Uart1Read()
                                   1230 ;	-----------------------------------------
                                   1231 ;	 function Uart1Read
                                   1232 ;	-----------------------------------------
      00020B                       1233 _Uart1Read:
                                   1234 ;	./lib/stc8uart.h:34: if (uart1.rptr != uart1.wptr)
      00020B 90r00r02         [24] 1235 	mov	dptr,#(_uart1 + 0x0002)
      00020E E0               [24] 1236 	movx	a,@dptr
      00020F FF               [12] 1237 	mov	r7,a
      000210 90r00r01         [24] 1238 	mov	dptr,#(_uart1 + 0x0001)
      000213 E0               [24] 1239 	movx	a,@dptr
      000214 FE               [12] 1240 	mov	r6,a
      000215 EF               [12] 1241 	mov	a,r7
      000216 B5 06 01         [24] 1242 	cjne	a,ar6,00109$
      000219 22               [24] 1243 	ret
      00021A                       1244 00109$:
                                   1245 ;	./lib/stc8uart.h:36: char tmp = uart1.buffer[uart1.rptr++];
      00021A EF               [12] 1246 	mov	a,r7
      00021B 04               [12] 1247 	inc	a
      00021C FE               [12] 1248 	mov	r6,a
      00021D 90r00r02         [24] 1249 	mov	dptr,#(_uart1 + 0x0002)
      000220 F0               [24] 1250 	movx	@dptr,a
      000221 EF               [12] 1251 	mov	a,r7
      000222 24r03            [12] 1252 	add	a,#(_uart1 + 0x0003)
      000224 F5 82            [12] 1253 	mov	dpl,a
      000226 E4               [12] 1254 	clr	a
      000227 34s00            [12] 1255 	addc	a,#((_uart1 + 0x0003) >> 8)
      000229 F5 83            [12] 1256 	mov	dph,a
      00022B E0               [24] 1257 	movx	a,@dptr
      00022C FF               [12] 1258 	mov	r7,a
                                   1259 ;	./lib/stc8uart.h:37: uart1.rptr &= 0x0f;
      00022D 53 06 0F         [24] 1260 	anl	ar6,#0x0f
      000230 90r00r02         [24] 1261 	mov	dptr,#(_uart1 + 0x0002)
      000233 EE               [12] 1262 	mov	a,r6
      000234 F0               [24] 1263 	movx	@dptr,a
                                   1264 ;	./lib/stc8uart.h:38: return tmp;
      000235 8F 82            [24] 1265 	mov	dpl,r7
                                   1266 ;	./lib/stc8uart.h:40: }
      000237 22               [24] 1267 	ret
                                   1268 ;------------------------------------------------------------
                                   1269 ;Allocation info for local variables in function 'Uart1Send'
                                   1270 ;------------------------------------------------------------
                                   1271 ;dat                       Allocated with name '_Uart1Send_dat_65536_31'
                                   1272 ;------------------------------------------------------------
                                   1273 ;	./lib/stc8uart.h:42: void Uart1Send(char dat)
                                   1274 ;	-----------------------------------------
                                   1275 ;	 function Uart1Send
                                   1276 ;	-----------------------------------------
      000238                       1277 _Uart1Send:
      000238 E5 82            [12] 1278 	mov	a,dpl
      00023A 90r00r51         [24] 1279 	mov	dptr,#_Uart1Send_dat_65536_31
      00023D F0               [24] 1280 	movx	@dptr,a
                                   1281 ;	./lib/stc8uart.h:44: while (uart1.busy)
      00023E                       1282 00101$:
      00023E 90r00r00         [24] 1283 	mov	dptr,#_uart1
      000241 E0               [24] 1284 	movx	a,@dptr
      000242 70 FA            [24] 1285 	jnz	00101$
                                   1286 ;	./lib/stc8uart.h:46: uart1.busy = 1;
      000244 90r00r00         [24] 1287 	mov	dptr,#_uart1
      000247 74 01            [12] 1288 	mov	a,#0x01
      000249 F0               [24] 1289 	movx	@dptr,a
                                   1290 ;	./lib/stc8uart.h:47: SBUF = dat;
      00024A 90r00r51         [24] 1291 	mov	dptr,#_Uart1Send_dat_65536_31
      00024D E0               [24] 1292 	movx	a,@dptr
      00024E F5 99            [12] 1293 	mov	_SBUF,a
                                   1294 ;	./lib/stc8uart.h:48: }
      000250 22               [24] 1295 	ret
                                   1296 ;------------------------------------------------------------
                                   1297 ;Allocation info for local variables in function 'Uart1SendStr'
                                   1298 ;------------------------------------------------------------
                                   1299 ;p                         Allocated with name '_Uart1SendStr_p_65536_33'
                                   1300 ;------------------------------------------------------------
                                   1301 ;	./lib/stc8uart.h:50: void Uart1SendStr(char *p)
                                   1302 ;	-----------------------------------------
                                   1303 ;	 function Uart1SendStr
                                   1304 ;	-----------------------------------------
      000251                       1305 _Uart1SendStr:
      000251 AF F0            [24] 1306 	mov	r7,b
      000253 AE 83            [24] 1307 	mov	r6,dph
      000255 E5 82            [12] 1308 	mov	a,dpl
      000257 90r00r52         [24] 1309 	mov	dptr,#_Uart1SendStr_p_65536_33
      00025A F0               [24] 1310 	movx	@dptr,a
      00025B EE               [12] 1311 	mov	a,r6
      00025C A3               [24] 1312 	inc	dptr
      00025D F0               [24] 1313 	movx	@dptr,a
      00025E EF               [12] 1314 	mov	a,r7
      00025F A3               [24] 1315 	inc	dptr
      000260 F0               [24] 1316 	movx	@dptr,a
                                   1317 ;	./lib/stc8uart.h:52: while (*p)
      000261 90r00r52         [24] 1318 	mov	dptr,#_Uart1SendStr_p_65536_33
      000264 E0               [24] 1319 	movx	a,@dptr
      000265 FD               [12] 1320 	mov	r5,a
      000266 A3               [24] 1321 	inc	dptr
      000267 E0               [24] 1322 	movx	a,@dptr
      000268 FE               [12] 1323 	mov	r6,a
      000269 A3               [24] 1324 	inc	dptr
      00026A E0               [24] 1325 	movx	a,@dptr
      00026B FF               [12] 1326 	mov	r7,a
      00026C                       1327 00101$:
      00026C 8D 82            [24] 1328 	mov	dpl,r5
      00026E 8E 83            [24] 1329 	mov	dph,r6
      000270 8F F0            [24] 1330 	mov	b,r7
      000272 12r00r00         [24] 1331 	lcall	__gptrget
      000275 FC               [12] 1332 	mov	r4,a
      000276 60 23            [24] 1333 	jz	00108$
                                   1334 ;	./lib/stc8uart.h:54: Uart1Send(*p++);
      000278 0D               [12] 1335 	inc	r5
      000279 BD 00 01         [24] 1336 	cjne	r5,#0x00,00116$
      00027C 0E               [12] 1337 	inc	r6
      00027D                       1338 00116$:
      00027D 90r00r52         [24] 1339 	mov	dptr,#_Uart1SendStr_p_65536_33
      000280 ED               [12] 1340 	mov	a,r5
      000281 F0               [24] 1341 	movx	@dptr,a
      000282 EE               [12] 1342 	mov	a,r6
      000283 A3               [24] 1343 	inc	dptr
      000284 F0               [24] 1344 	movx	@dptr,a
      000285 EF               [12] 1345 	mov	a,r7
      000286 A3               [24] 1346 	inc	dptr
      000287 F0               [24] 1347 	movx	@dptr,a
      000288 8C 82            [24] 1348 	mov	dpl,r4
      00028A C0 07            [24] 1349 	push	ar7
      00028C C0 06            [24] 1350 	push	ar6
      00028E C0 05            [24] 1351 	push	ar5
      000290 12r02r38         [24] 1352 	lcall	_Uart1Send
      000293 D0 05            [24] 1353 	pop	ar5
      000295 D0 06            [24] 1354 	pop	ar6
      000297 D0 07            [24] 1355 	pop	ar7
      000299 80 D1            [24] 1356 	sjmp	00101$
      00029B                       1357 00108$:
      00029B 90r00r52         [24] 1358 	mov	dptr,#_Uart1SendStr_p_65536_33
      00029E ED               [12] 1359 	mov	a,r5
      00029F F0               [24] 1360 	movx	@dptr,a
      0002A0 EE               [12] 1361 	mov	a,r6
      0002A1 A3               [24] 1362 	inc	dptr
      0002A2 F0               [24] 1363 	movx	@dptr,a
      0002A3 EF               [12] 1364 	mov	a,r7
      0002A4 A3               [24] 1365 	inc	dptr
      0002A5 F0               [24] 1366 	movx	@dptr,a
                                   1367 ;	./lib/stc8uart.h:56: }
      0002A6 22               [24] 1368 	ret
                                   1369 ;------------------------------------------------------------
                                   1370 ;Allocation info for local variables in function 'Uart2Isr'
                                   1371 ;------------------------------------------------------------
                                   1372 ;	./lib/stc8uart.h:58: void Uart2Isr() __interrupt(UART2_VECTOR)
                                   1373 ;	-----------------------------------------
                                   1374 ;	 function Uart2Isr
                                   1375 ;	-----------------------------------------
      0002A7                       1376 _Uart2Isr:
      0002A7 C0 E0            [24] 1377 	push	acc
      0002A9 C0 82            [24] 1378 	push	dpl
      0002AB C0 83            [24] 1379 	push	dph
      0002AD C0 07            [24] 1380 	push	ar7
      0002AF C0 06            [24] 1381 	push	ar6
      0002B1 C0 D0            [24] 1382 	push	psw
      0002B3 75 D0 00         [24] 1383 	mov	psw,#0x00
                                   1384 ;	./lib/stc8uart.h:60: if (S2CON & S2TI)
      0002B6 E5 9A            [12] 1385 	mov	a,_S2CON
      0002B8 30 E1 08         [24] 1386 	jnb	acc.1,00102$
                                   1387 ;	./lib/stc8uart.h:62: S2CON &= ~S2TI;
      0002BB 53 9A FD         [24] 1388 	anl	_S2CON,#0xfd
                                   1389 ;	./lib/stc8uart.h:63: uart2.busy = 0;
      0002BE 90r00r13         [24] 1390 	mov	dptr,#_uart2
      0002C1 E4               [12] 1391 	clr	a
      0002C2 F0               [24] 1392 	movx	@dptr,a
      0002C3                       1393 00102$:
                                   1394 ;	./lib/stc8uart.h:65: if (S2CON & S2RI)
      0002C3 E5 9A            [12] 1395 	mov	a,_S2CON
      0002C5 30 E0 23         [24] 1396 	jnb	acc.0,00105$
                                   1397 ;	./lib/stc8uart.h:67: S2CON &= ~S2RI;
      0002C8 53 9A FE         [24] 1398 	anl	_S2CON,#0xfe
                                   1399 ;	./lib/stc8uart.h:68: uart2.buffer[uart2.wptr++] = S2BUF;
      0002CB 90r00r14         [24] 1400 	mov	dptr,#(_uart2 + 0x0001)
      0002CE E0               [24] 1401 	movx	a,@dptr
      0002CF FF               [12] 1402 	mov	r7,a
      0002D0 04               [12] 1403 	inc	a
      0002D1 FE               [12] 1404 	mov	r6,a
      0002D2 90r00r14         [24] 1405 	mov	dptr,#(_uart2 + 0x0001)
      0002D5 F0               [24] 1406 	movx	@dptr,a
      0002D6 EF               [12] 1407 	mov	a,r7
      0002D7 24r16            [12] 1408 	add	a,#(_uart2 + 0x0003)
      0002D9 F5 82            [12] 1409 	mov	dpl,a
      0002DB E4               [12] 1410 	clr	a
      0002DC 34s00            [12] 1411 	addc	a,#((_uart2 + 0x0003) >> 8)
      0002DE F5 83            [12] 1412 	mov	dph,a
      0002E0 E5 9B            [12] 1413 	mov	a,_S2BUF
      0002E2 F0               [24] 1414 	movx	@dptr,a
                                   1415 ;	./lib/stc8uart.h:69: uart2.wptr &= 0x0f;
      0002E3 53 06 0F         [24] 1416 	anl	ar6,#0x0f
      0002E6 90r00r14         [24] 1417 	mov	dptr,#(_uart2 + 0x0001)
      0002E9 EE               [12] 1418 	mov	a,r6
      0002EA F0               [24] 1419 	movx	@dptr,a
      0002EB                       1420 00105$:
                                   1421 ;	./lib/stc8uart.h:71: }
      0002EB D0 D0            [24] 1422 	pop	psw
      0002ED D0 06            [24] 1423 	pop	ar6
      0002EF D0 07            [24] 1424 	pop	ar7
      0002F1 D0 83            [24] 1425 	pop	dph
      0002F3 D0 82            [24] 1426 	pop	dpl
      0002F5 D0 E0            [24] 1427 	pop	acc
      0002F7 32               [24] 1428 	reti
                                   1429 ;	eliminated unneeded push/pop b
                                   1430 ;------------------------------------------------------------
                                   1431 ;Allocation info for local variables in function 'Uart2Init'
                                   1432 ;------------------------------------------------------------
                                   1433 ;	./lib/stc8uart.h:73: void Uart2Init()
                                   1434 ;	-----------------------------------------
                                   1435 ;	 function Uart2Init
                                   1436 ;	-----------------------------------------
      0002F8                       1437 _Uart2Init:
                                   1438 ;	./lib/stc8uart.h:75: S2CON = 0x10;
      0002F8 75 9A 10         [24] 1439 	mov	_S2CON,#0x10
                                   1440 ;	./lib/stc8uart.h:76: T2L = BRT;
      0002FB 75 D7 CC         [24] 1441 	mov	_T2L,#0xcc
                                   1442 ;	./lib/stc8uart.h:77: T2H = BRT >> 8;
      0002FE 75 D6 FF         [24] 1443 	mov	_T2H,#0xff
                                   1444 ;	./lib/stc8uart.h:78: AUXR |= 0x14;
      000301 43 8E 14         [24] 1445 	orl	_AUXR,#0x14
                                   1446 ;	./lib/stc8uart.h:79: uart2.busy = 0;
      000304 90r00r13         [24] 1447 	mov	dptr,#_uart2
      000307 E4               [12] 1448 	clr	a
      000308 F0               [24] 1449 	movx	@dptr,a
                                   1450 ;	./lib/stc8uart.h:80: uart2.wptr = 0;
      000309 90r00r14         [24] 1451 	mov	dptr,#(_uart2 + 0x0001)
      00030C F0               [24] 1452 	movx	@dptr,a
                                   1453 ;	./lib/stc8uart.h:81: uart2.rptr = 0;
      00030D 90r00r15         [24] 1454 	mov	dptr,#(_uart2 + 0x0002)
      000310 F0               [24] 1455 	movx	@dptr,a
                                   1456 ;	./lib/stc8uart.h:82: }
      000311 22               [24] 1457 	ret
                                   1458 ;------------------------------------------------------------
                                   1459 ;Allocation info for local variables in function 'Uart2Read'
                                   1460 ;------------------------------------------------------------
                                   1461 ;tmp                       Allocated with name '_Uart2Read_tmp_131072_41'
                                   1462 ;------------------------------------------------------------
                                   1463 ;	./lib/stc8uart.h:84: char Uart2Read()
                                   1464 ;	-----------------------------------------
                                   1465 ;	 function Uart2Read
                                   1466 ;	-----------------------------------------
      000312                       1467 _Uart2Read:
                                   1468 ;	./lib/stc8uart.h:86: if (uart2.rptr != uart2.wptr)
      000312 90r00r15         [24] 1469 	mov	dptr,#(_uart2 + 0x0002)
      000315 E0               [24] 1470 	movx	a,@dptr
      000316 FF               [12] 1471 	mov	r7,a
      000317 90r00r14         [24] 1472 	mov	dptr,#(_uart2 + 0x0001)
      00031A E0               [24] 1473 	movx	a,@dptr
      00031B FE               [12] 1474 	mov	r6,a
      00031C EF               [12] 1475 	mov	a,r7
      00031D B5 06 02         [24] 1476 	cjne	a,ar6,00109$
      000320 80 1E            [24] 1477 	sjmp	00102$
      000322                       1478 00109$:
                                   1479 ;	./lib/stc8uart.h:88: char tmp = uart2.buffer[uart2.rptr++];
      000322 EF               [12] 1480 	mov	a,r7
      000323 04               [12] 1481 	inc	a
      000324 FE               [12] 1482 	mov	r6,a
      000325 90r00r15         [24] 1483 	mov	dptr,#(_uart2 + 0x0002)
      000328 F0               [24] 1484 	movx	@dptr,a
      000329 EF               [12] 1485 	mov	a,r7
      00032A 24r16            [12] 1486 	add	a,#(_uart2 + 0x0003)
      00032C F5 82            [12] 1487 	mov	dpl,a
      00032E E4               [12] 1488 	clr	a
      00032F 34s00            [12] 1489 	addc	a,#((_uart2 + 0x0003) >> 8)
      000331 F5 83            [12] 1490 	mov	dph,a
      000333 E0               [24] 1491 	movx	a,@dptr
      000334 FF               [12] 1492 	mov	r7,a
                                   1493 ;	./lib/stc8uart.h:89: uart2.rptr &= 0x0f;
      000335 53 06 0F         [24] 1494 	anl	ar6,#0x0f
      000338 90r00r15         [24] 1495 	mov	dptr,#(_uart2 + 0x0002)
      00033B EE               [12] 1496 	mov	a,r6
      00033C F0               [24] 1497 	movx	@dptr,a
                                   1498 ;	./lib/stc8uart.h:90: return tmp;
      00033D 8F 82            [24] 1499 	mov	dpl,r7
      00033F 22               [24] 1500 	ret
      000340                       1501 00102$:
                                   1502 ;	./lib/stc8uart.h:92: return 0;
      000340 75 82 00         [24] 1503 	mov	dpl,#0x00
                                   1504 ;	./lib/stc8uart.h:93: }
      000343 22               [24] 1505 	ret
                                   1506 ;------------------------------------------------------------
                                   1507 ;Allocation info for local variables in function 'Uart2Send'
                                   1508 ;------------------------------------------------------------
                                   1509 ;dat                       Allocated with name '_Uart2Send_dat_65536_42'
                                   1510 ;------------------------------------------------------------
                                   1511 ;	./lib/stc8uart.h:95: void Uart2Send(char dat)
                                   1512 ;	-----------------------------------------
                                   1513 ;	 function Uart2Send
                                   1514 ;	-----------------------------------------
      000344                       1515 _Uart2Send:
      000344 E5 82            [12] 1516 	mov	a,dpl
      000346 90r00r55         [24] 1517 	mov	dptr,#_Uart2Send_dat_65536_42
      000349 F0               [24] 1518 	movx	@dptr,a
                                   1519 ;	./lib/stc8uart.h:97: while (uart2.busy)
      00034A                       1520 00101$:
      00034A 90r00r13         [24] 1521 	mov	dptr,#_uart2
      00034D E0               [24] 1522 	movx	a,@dptr
      00034E 70 FA            [24] 1523 	jnz	00101$
                                   1524 ;	./lib/stc8uart.h:99: uart2.busy = 1;
      000350 90r00r13         [24] 1525 	mov	dptr,#_uart2
      000353 74 01            [12] 1526 	mov	a,#0x01
      000355 F0               [24] 1527 	movx	@dptr,a
                                   1528 ;	./lib/stc8uart.h:100: S2BUF = dat;
      000356 90r00r55         [24] 1529 	mov	dptr,#_Uart2Send_dat_65536_42
      000359 E0               [24] 1530 	movx	a,@dptr
      00035A F5 9B            [12] 1531 	mov	_S2BUF,a
                                   1532 ;	./lib/stc8uart.h:101: }
      00035C 22               [24] 1533 	ret
                                   1534 ;------------------------------------------------------------
                                   1535 ;Allocation info for local variables in function 'Uart2SendStr'
                                   1536 ;------------------------------------------------------------
                                   1537 ;p                         Allocated with name '_Uart2SendStr_p_65536_44'
                                   1538 ;------------------------------------------------------------
                                   1539 ;	./lib/stc8uart.h:103: void Uart2SendStr(char *p)
                                   1540 ;	-----------------------------------------
                                   1541 ;	 function Uart2SendStr
                                   1542 ;	-----------------------------------------
      00035D                       1543 _Uart2SendStr:
      00035D AF F0            [24] 1544 	mov	r7,b
      00035F AE 83            [24] 1545 	mov	r6,dph
      000361 E5 82            [12] 1546 	mov	a,dpl
      000363 90r00r56         [24] 1547 	mov	dptr,#_Uart2SendStr_p_65536_44
      000366 F0               [24] 1548 	movx	@dptr,a
      000367 EE               [12] 1549 	mov	a,r6
      000368 A3               [24] 1550 	inc	dptr
      000369 F0               [24] 1551 	movx	@dptr,a
      00036A EF               [12] 1552 	mov	a,r7
      00036B A3               [24] 1553 	inc	dptr
      00036C F0               [24] 1554 	movx	@dptr,a
                                   1555 ;	./lib/stc8uart.h:105: while (*p)
      00036D 90r00r56         [24] 1556 	mov	dptr,#_Uart2SendStr_p_65536_44
      000370 E0               [24] 1557 	movx	a,@dptr
      000371 FD               [12] 1558 	mov	r5,a
      000372 A3               [24] 1559 	inc	dptr
      000373 E0               [24] 1560 	movx	a,@dptr
      000374 FE               [12] 1561 	mov	r6,a
      000375 A3               [24] 1562 	inc	dptr
      000376 E0               [24] 1563 	movx	a,@dptr
      000377 FF               [12] 1564 	mov	r7,a
      000378                       1565 00101$:
      000378 8D 82            [24] 1566 	mov	dpl,r5
      00037A 8E 83            [24] 1567 	mov	dph,r6
      00037C 8F F0            [24] 1568 	mov	b,r7
      00037E 12r00r00         [24] 1569 	lcall	__gptrget
      000381 FC               [12] 1570 	mov	r4,a
      000382 60 23            [24] 1571 	jz	00108$
                                   1572 ;	./lib/stc8uart.h:107: Uart2Send(*p++);
      000384 0D               [12] 1573 	inc	r5
      000385 BD 00 01         [24] 1574 	cjne	r5,#0x00,00116$
      000388 0E               [12] 1575 	inc	r6
      000389                       1576 00116$:
      000389 90r00r56         [24] 1577 	mov	dptr,#_Uart2SendStr_p_65536_44
      00038C ED               [12] 1578 	mov	a,r5
      00038D F0               [24] 1579 	movx	@dptr,a
      00038E EE               [12] 1580 	mov	a,r6
      00038F A3               [24] 1581 	inc	dptr
      000390 F0               [24] 1582 	movx	@dptr,a
      000391 EF               [12] 1583 	mov	a,r7
      000392 A3               [24] 1584 	inc	dptr
      000393 F0               [24] 1585 	movx	@dptr,a
      000394 8C 82            [24] 1586 	mov	dpl,r4
      000396 C0 07            [24] 1587 	push	ar7
      000398 C0 06            [24] 1588 	push	ar6
      00039A C0 05            [24] 1589 	push	ar5
      00039C 12r03r44         [24] 1590 	lcall	_Uart2Send
      00039F D0 05            [24] 1591 	pop	ar5
      0003A1 D0 06            [24] 1592 	pop	ar6
      0003A3 D0 07            [24] 1593 	pop	ar7
      0003A5 80 D1            [24] 1594 	sjmp	00101$
      0003A7                       1595 00108$:
      0003A7 90r00r56         [24] 1596 	mov	dptr,#_Uart2SendStr_p_65536_44
      0003AA ED               [12] 1597 	mov	a,r5
      0003AB F0               [24] 1598 	movx	@dptr,a
      0003AC EE               [12] 1599 	mov	a,r6
      0003AD A3               [24] 1600 	inc	dptr
      0003AE F0               [24] 1601 	movx	@dptr,a
      0003AF EF               [12] 1602 	mov	a,r7
      0003B0 A3               [24] 1603 	inc	dptr
      0003B1 F0               [24] 1604 	movx	@dptr,a
                                   1605 ;	./lib/stc8uart.h:109: }
      0003B2 22               [24] 1606 	ret
                                   1607 ;------------------------------------------------------------
                                   1608 ;Allocation info for local variables in function '_IAP_ADDR_TRIG'
                                   1609 ;------------------------------------------------------------
                                   1610 ;address                   Allocated with name '__IAP_ADDR_TRIG_address_65536_47'
                                   1611 ;------------------------------------------------------------
                                   1612 ;	./lib/EEPROM.h:17: void _IAP_ADDR_TRIG(unsigned int address)
                                   1613 ;	-----------------------------------------
                                   1614 ;	 function _IAP_ADDR_TRIG
                                   1615 ;	-----------------------------------------
      0003B3                       1616 __IAP_ADDR_TRIG:
      0003B3 AF 83            [24] 1617 	mov	r7,dph
      0003B5 E5 82            [12] 1618 	mov	a,dpl
      0003B7 90r00r59         [24] 1619 	mov	dptr,#__IAP_ADDR_TRIG_address_65536_47
      0003BA F0               [24] 1620 	movx	@dptr,a
      0003BB EF               [12] 1621 	mov	a,r7
      0003BC A3               [24] 1622 	inc	dptr
      0003BD F0               [24] 1623 	movx	@dptr,a
                                   1624 ;	./lib/EEPROM.h:19: IAP_ADDRL = address;      // IAP 
      0003BE 90r00r59         [24] 1625 	mov	dptr,#__IAP_ADDR_TRIG_address_65536_47
      0003C1 E0               [24] 1626 	movx	a,@dptr
      0003C2 FE               [12] 1627 	mov	r6,a
      0003C3 A3               [24] 1628 	inc	dptr
      0003C4 E0               [24] 1629 	movx	a,@dptr
      0003C5 FF               [12] 1630 	mov	r7,a
      0003C6 8E C4            [24] 1631 	mov	_IAP_ADDRL,r6
                                   1632 ;	./lib/EEPROM.h:20: IAP_ADDRH = address >> 8; // IAP 
      0003C8 8F C3            [24] 1633 	mov	_IAP_ADDRH,r7
                                   1634 ;	./lib/EEPROM.h:21: IAP_TRIG = 0x5a;          //(0x5a)
      0003CA 75 C6 5A         [24] 1635 	mov	_IAP_TRIG,#0x5a
                                   1636 ;	./lib/EEPROM.h:22: IAP_TRIG = 0xa5;          //(0xa5)
      0003CD 75 C6 A5         [24] 1637 	mov	_IAP_TRIG,#0xa5
                                   1638 ;	./lib/EEPROM.h:23: }
      0003D0 22               [24] 1639 	ret
                                   1640 ;------------------------------------------------------------
                                   1641 ;Allocation info for local variables in function 'IapIdle'
                                   1642 ;------------------------------------------------------------
                                   1643 ;	./lib/EEPROM.h:25: void IapIdle()
                                   1644 ;	-----------------------------------------
                                   1645 ;	 function IapIdle
                                   1646 ;	-----------------------------------------
      0003D1                       1647 _IapIdle:
                                   1648 ;	./lib/EEPROM.h:27: IAP_CONTR=0;      //IAP
      0003D1 75 C7 00         [24] 1649 	mov	_IAP_CONTR,#0x00
                                   1650 ;	./lib/EEPROM.h:28: IAP_CMD = 0;      //
      0003D4 75 C5 00         [24] 1651 	mov	_IAP_CMD,#0x00
                                   1652 ;	./lib/EEPROM.h:29: IAP_TRIG = 0;     //
      0003D7 75 C6 00         [24] 1653 	mov	_IAP_TRIG,#0x00
                                   1654 ;	./lib/EEPROM.h:30: IAP_ADDRH = 0x80; // IAP 
      0003DA 75 C3 80         [24] 1655 	mov	_IAP_ADDRH,#0x80
                                   1656 ;	./lib/EEPROM.h:31: IAP_ADDRL = 0;
      0003DD 75 C4 00         [24] 1657 	mov	_IAP_ADDRL,#0x00
                                   1658 ;	./lib/EEPROM.h:32: }
      0003E0 22               [24] 1659 	ret
                                   1660 ;------------------------------------------------------------
                                   1661 ;Allocation info for local variables in function 'IapErase'
                                   1662 ;------------------------------------------------------------
                                   1663 ;address                   Allocated with name '_IapErase_address_65536_50'
                                   1664 ;------------------------------------------------------------
                                   1665 ;	./lib/EEPROM.h:34: void IapErase(unsigned int address)
                                   1666 ;	-----------------------------------------
                                   1667 ;	 function IapErase
                                   1668 ;	-----------------------------------------
      0003E1                       1669 _IapErase:
      0003E1 AF 83            [24] 1670 	mov	r7,dph
      0003E3 E5 82            [12] 1671 	mov	a,dpl
      0003E5 90r00r5B         [24] 1672 	mov	dptr,#_IapErase_address_65536_50
      0003E8 F0               [24] 1673 	movx	@dptr,a
      0003E9 EF               [12] 1674 	mov	a,r7
      0003EA A3               [24] 1675 	inc	dptr
      0003EB F0               [24] 1676 	movx	@dptr,a
                                   1677 ;	./lib/EEPROM.h:36: EA = 0;                             //
                                   1678 ;	assignBit
      0003EC C2 AF            [12] 1679 	clr	_EA
                                   1680 ;	./lib/EEPROM.h:37: IAP_CONTR = IAPEN + ISP_WAIT_24MHZ; // IAP
      0003EE 75 C7 81         [24] 1681 	mov	_IAP_CONTR,#0x81
                                   1682 ;	./lib/EEPROM.h:38: IAP_CMD = 3;                        // IAP 
      0003F1 75 C5 03         [24] 1683 	mov	_IAP_CMD,#0x03
                                   1684 ;	./lib/EEPROM.h:39: _IAP_ADDR_TRIG(address);
      0003F4 90r00r5B         [24] 1685 	mov	dptr,#_IapErase_address_65536_50
      0003F7 E0               [24] 1686 	movx	a,@dptr
      0003F8 FE               [12] 1687 	mov	r6,a
      0003F9 A3               [24] 1688 	inc	dptr
      0003FA E0               [24] 1689 	movx	a,@dptr
      0003FB FF               [12] 1690 	mov	r7,a
      0003FC 8E 82            [24] 1691 	mov	dpl,r6
      0003FE 8F 83            [24] 1692 	mov	dph,r7
      000400 12r03rB3         [24] 1693 	lcall	__IAP_ADDR_TRIG
                                   1694 ;	./lib/EEPROM.h:40: _nop_();                            //
      000403 00               [12] 1695 	nop
                                   1696 ;	./lib/EEPROM.h:41: IapIdle();                          // IAP 
                                   1697 ;	./lib/EEPROM.h:42: }
      000404 02r03rD1         [24] 1698 	ljmp	_IapIdle
                                   1699 ;------------------------------------------------------------
                                   1700 ;Allocation info for local variables in function 'IapRead'
                                   1701 ;------------------------------------------------------------
                                   1702 ;address                   Allocated with name '_IapRead_address_65536_52'
                                   1703 ;dat                       Allocated with name '_IapRead_dat_65536_53'
                                   1704 ;------------------------------------------------------------
                                   1705 ;	./lib/EEPROM.h:44: char IapRead(int address)
                                   1706 ;	-----------------------------------------
                                   1707 ;	 function IapRead
                                   1708 ;	-----------------------------------------
      000407                       1709 _IapRead:
      000407 AF 83            [24] 1710 	mov	r7,dph
      000409 E5 82            [12] 1711 	mov	a,dpl
      00040B 90r00r5D         [24] 1712 	mov	dptr,#_IapRead_address_65536_52
      00040E F0               [24] 1713 	movx	@dptr,a
      00040F EF               [12] 1714 	mov	a,r7
      000410 A3               [24] 1715 	inc	dptr
      000411 F0               [24] 1716 	movx	@dptr,a
                                   1717 ;	./lib/EEPROM.h:47: IAP_CONTR = IAPEN + ISP_WAIT_24MHZ; // IAP
      000412 75 C7 81         [24] 1718 	mov	_IAP_CONTR,#0x81
                                   1719 ;	./lib/EEPROM.h:48: IAP_CMD = 1;           // IAP 
      000415 75 C5 01         [24] 1720 	mov	_IAP_CMD,#0x01
                                   1721 ;	./lib/EEPROM.h:49: _IAP_ADDR_TRIG(address);
      000418 90r00r5D         [24] 1722 	mov	dptr,#_IapRead_address_65536_52
      00041B E0               [24] 1723 	movx	a,@dptr
      00041C FE               [12] 1724 	mov	r6,a
      00041D A3               [24] 1725 	inc	dptr
      00041E E0               [24] 1726 	movx	a,@dptr
      00041F FF               [12] 1727 	mov	r7,a
      000420 8E 82            [24] 1728 	mov	dpl,r6
      000422 8F 83            [24] 1729 	mov	dph,r7
      000424 12r03rB3         [24] 1730 	lcall	__IAP_ADDR_TRIG
                                   1731 ;	./lib/EEPROM.h:50: _nop_();
      000427 00               [12] 1732 	nop
                                   1733 ;	./lib/EEPROM.h:51: dat = IAP_DATA; // IAP 
      000428 90r00r5F         [24] 1734 	mov	dptr,#_IapRead_dat_65536_53
      00042B E5 C2            [12] 1735 	mov	a,_IAP_DATA
      00042D F0               [24] 1736 	movx	@dptr,a
                                   1737 ;	./lib/EEPROM.h:52: IapIdle();      // IAP 
      00042E 12r03rD1         [24] 1738 	lcall	_IapIdle
                                   1739 ;	./lib/EEPROM.h:53: return dat;
      000431 90r00r5F         [24] 1740 	mov	dptr,#_IapRead_dat_65536_53
      000434 E0               [24] 1741 	movx	a,@dptr
                                   1742 ;	./lib/EEPROM.h:54: }
      000435 F5 82            [12] 1743 	mov	dpl,a
      000437 22               [24] 1744 	ret
                                   1745 ;------------------------------------------------------------
                                   1746 ;Allocation info for local variables in function 'IapProgram'
                                   1747 ;------------------------------------------------------------
                                   1748 ;dat                       Allocated with name '_IapProgram_PARM_2'
                                   1749 ;address                   Allocated with name '_IapProgram_address_65536_54'
                                   1750 ;------------------------------------------------------------
                                   1751 ;	./lib/EEPROM.h:56: void IapProgram(int address, char dat)
                                   1752 ;	-----------------------------------------
                                   1753 ;	 function IapProgram
                                   1754 ;	-----------------------------------------
      000438                       1755 _IapProgram:
      000438 AF 83            [24] 1756 	mov	r7,dph
      00043A E5 82            [12] 1757 	mov	a,dpl
      00043C 90r00r61         [24] 1758 	mov	dptr,#_IapProgram_address_65536_54
      00043F F0               [24] 1759 	movx	@dptr,a
      000440 EF               [12] 1760 	mov	a,r7
      000441 A3               [24] 1761 	inc	dptr
      000442 F0               [24] 1762 	movx	@dptr,a
                                   1763 ;	./lib/EEPROM.h:58: IAP_CONTR = IAPEN + ISP_WAIT_24MHZ; // IAP
      000443 75 C7 81         [24] 1764 	mov	_IAP_CONTR,#0x81
                                   1765 ;	./lib/EEPROM.h:59: IAP_CMD = 2;           // IAP 
      000446 75 C5 02         [24] 1766 	mov	_IAP_CMD,#0x02
                                   1767 ;	./lib/EEPROM.h:60: IAP_DATA = dat;        // IAP 
      000449 90r00r60         [24] 1768 	mov	dptr,#_IapProgram_PARM_2
      00044C E0               [24] 1769 	movx	a,@dptr
      00044D F5 C2            [12] 1770 	mov	_IAP_DATA,a
                                   1771 ;	./lib/EEPROM.h:61: _IAP_ADDR_TRIG(address);
      00044F 90r00r61         [24] 1772 	mov	dptr,#_IapProgram_address_65536_54
      000452 E0               [24] 1773 	movx	a,@dptr
      000453 FE               [12] 1774 	mov	r6,a
      000454 A3               [24] 1775 	inc	dptr
      000455 E0               [24] 1776 	movx	a,@dptr
      000456 FF               [12] 1777 	mov	r7,a
      000457 8E 82            [24] 1778 	mov	dpl,r6
      000459 8F 83            [24] 1779 	mov	dph,r7
      00045B 12r03rB3         [24] 1780 	lcall	__IAP_ADDR_TRIG
                                   1781 ;	./lib/EEPROM.h:62: _nop_();
      00045E 00               [12] 1782 	nop
                                   1783 ;	./lib/EEPROM.h:63: IapIdle(); // IAP 
                                   1784 ;	./lib/EEPROM.h:64: }
      00045F 02r03rD1         [24] 1785 	ljmp	_IapIdle
                                   1786 ;------------------------------------------------------------
                                   1787 ;Allocation info for local variables in function 'Delay100ms'
                                   1788 ;------------------------------------------------------------
                                   1789 ;i                         Allocated with name '_Delay100ms_i_65536_80'
                                   1790 ;j                         Allocated with name '_Delay100ms_j_65536_80'
                                   1791 ;k                         Allocated with name '_Delay100ms_k_65536_80'
                                   1792 ;------------------------------------------------------------
                                   1793 ;	.\src\main.c:39: void Delay100ms() //@24.000MHz
                                   1794 ;	-----------------------------------------
                                   1795 ;	 function Delay100ms
                                   1796 ;	-----------------------------------------
      000462                       1797 _Delay100ms:
                                   1798 ;	.\src\main.c:43: _nop_();
      000462 00               [12] 1799 	nop
                                   1800 ;	.\src\main.c:44: _nop_();
      000463 00               [12] 1801 	nop
                                   1802 ;	.\src\main.c:52: while (--k)
      000464 7F D6            [12] 1803 	mov	r7,#0xd6
      000466 7E 2D            [12] 1804 	mov	r6,#0x2d
      000468 7D 0D            [12] 1805 	mov	r5,#0x0d
      00046A                       1806 00101$:
      00046A DF FE            [24] 1807 	djnz	r7,00101$
                                   1808 ;	.\src\main.c:54: } while (--j);
      00046C DE FC            [24] 1809 	djnz	r6,00101$
                                   1810 ;	.\src\main.c:55: } while (--i);
      00046E DD FA            [24] 1811 	djnz	r5,00101$
                                   1812 ;	.\src\main.c:56: }
      000470 22               [24] 1813 	ret
                                   1814 ;------------------------------------------------------------
                                   1815 ;Allocation info for local variables in function 'Delay100us'
                                   1816 ;------------------------------------------------------------
                                   1817 ;i                         Allocated with name '_Delay100us_i_65536_83'
                                   1818 ;j                         Allocated with name '_Delay100us_j_65536_83'
                                   1819 ;------------------------------------------------------------
                                   1820 ;	.\src\main.c:58: void Delay100us() //@24.000MHz
                                   1821 ;	-----------------------------------------
                                   1822 ;	 function Delay100us
                                   1823 ;	-----------------------------------------
      000471                       1824 _Delay100us:
                                   1825 ;	.\src\main.c:65: while (--j)
      000471 7F 1B            [12] 1826 	mov	r7,#0x1b
      000473 7E 04            [12] 1827 	mov	r6,#0x04
      000475                       1828 00101$:
      000475 DF FE            [24] 1829 	djnz	r7,00101$
                                   1830 ;	.\src\main.c:67: } while (--i);
      000477 DE FC            [24] 1831 	djnz	r6,00101$
                                   1832 ;	.\src\main.c:68: }
      000479 22               [24] 1833 	ret
                                   1834 ;------------------------------------------------------------
                                   1835 ;Allocation info for local variables in function 'Delay1us'
                                   1836 ;------------------------------------------------------------
                                   1837 ;i                         Allocated with name '_Delay1us_i_65536_85'
                                   1838 ;------------------------------------------------------------
                                   1839 ;	.\src\main.c:69: void Delay1us() //@24.000MHz
                                   1840 ;	-----------------------------------------
                                   1841 ;	 function Delay1us
                                   1842 ;	-----------------------------------------
      00047A                       1843 _Delay1us:
                                   1844 ;	.\src\main.c:74: while (--i)
      00047A 7F 06            [12] 1845 	mov	r7,#0x06
      00047C                       1846 00101$:
      00047C DF FE            [24] 1847 	djnz	r7,00101$
                                   1848 ;	.\src\main.c:76: }
      00047E 22               [24] 1849 	ret
                                   1850 ;------------------------------------------------------------
                                   1851 ;Allocation info for local variables in function 'ROM_Write'
                                   1852 ;------------------------------------------------------------
                                   1853 ;l                         Allocated with name '_ROM_Write_l_65536_86'
                                   1854 ;h                         Allocated with name '_ROM_Write_h_65536_86'
                                   1855 ;------------------------------------------------------------
                                   1856 ;	.\src\main.c:78: void ROM_Write()
                                   1857 ;	-----------------------------------------
                                   1858 ;	 function ROM_Write
                                   1859 ;	-----------------------------------------
      00047F                       1860 _ROM_Write:
                                   1861 ;	.\src\main.c:81: IapErase(0x0000);
      00047F 90 00 00         [24] 1862 	mov	dptr,#0x0000
      000482 12r03rE1         [24] 1863 	lcall	_IapErase
                                   1864 ;	.\src\main.c:82: Delay100us();
      000485 12r04r71         [24] 1865 	lcall	_Delay100us
                                   1866 ;	.\src\main.c:84: l = motor_circle;
      000488 90r00r4E         [24] 1867 	mov	dptr,#_motor_circle
      00048B E0               [24] 1868 	movx	a,@dptr
                                   1869 ;	.\src\main.c:86: IapProgram(0x00, l);
      00048C 90r00r60         [24] 1870 	mov	dptr,#_IapProgram_PARM_2
      00048F F0               [24] 1871 	movx	@dptr,a
      000490 90 00 00         [24] 1872 	mov	dptr,#0x0000
      000493 12r04r38         [24] 1873 	lcall	_IapProgram
                                   1874 ;	.\src\main.c:87: Delay100us();
      000496 12r04r71         [24] 1875 	lcall	_Delay100us
                                   1876 ;	.\src\main.c:88: IapProgram(0x01, h);
      000499 90r00r60         [24] 1877 	mov	dptr,#_IapProgram_PARM_2
      00049C E4               [12] 1878 	clr	a
      00049D F0               [24] 1879 	movx	@dptr,a
      00049E 90 00 01         [24] 1880 	mov	dptr,#0x0001
      0004A1 12r04r38         [24] 1881 	lcall	_IapProgram
                                   1882 ;	.\src\main.c:89: Delay100us();
      0004A4 12r04r71         [24] 1883 	lcall	_Delay100us
                                   1884 ;	.\src\main.c:90: l = value_hz;
      0004A7 90r00r00         [24] 1885 	mov	dptr,#_value_hz
      0004AA E0               [24] 1886 	movx	a,@dptr
      0004AB FE               [12] 1887 	mov	r6,a
      0004AC A3               [24] 1888 	inc	dptr
      0004AD E0               [24] 1889 	movx	a,@dptr
      0004AE FF               [12] 1890 	mov	r7,a
      0004AF 8E 05            [24] 1891 	mov	ar5,r6
                                   1892 ;	.\src\main.c:91: h = value_hz >> 8;
      0004B1 90r00r68         [24] 1893 	mov	dptr,#_ROM_Write_h_65536_86
      0004B4 EF               [12] 1894 	mov	a,r7
      0004B5 F0               [24] 1895 	movx	@dptr,a
                                   1896 ;	.\src\main.c:92: IapProgram(0x10, l);
      0004B6 90r00r60         [24] 1897 	mov	dptr,#_IapProgram_PARM_2
      0004B9 ED               [12] 1898 	mov	a,r5
      0004BA F0               [24] 1899 	movx	@dptr,a
      0004BB 90 00 10         [24] 1900 	mov	dptr,#0x0010
      0004BE 12r04r38         [24] 1901 	lcall	_IapProgram
                                   1902 ;	.\src\main.c:93: Delay100us();
      0004C1 12r04r71         [24] 1903 	lcall	_Delay100us
                                   1904 ;	.\src\main.c:94: IapProgram(0x11, h);
      0004C4 90r00r68         [24] 1905 	mov	dptr,#_ROM_Write_h_65536_86
      0004C7 E0               [24] 1906 	movx	a,@dptr
      0004C8 90r00r60         [24] 1907 	mov	dptr,#_IapProgram_PARM_2
      0004CB F0               [24] 1908 	movx	@dptr,a
      0004CC 90 00 11         [24] 1909 	mov	dptr,#0x0011
                                   1910 ;	.\src\main.c:95: }
      0004CF 02r04r38         [24] 1911 	ljmp	_IapProgram
                                   1912 ;------------------------------------------------------------
                                   1913 ;Allocation info for local variables in function 'Tohome'
                                   1914 ;------------------------------------------------------------
                                   1915 ;	.\src\main.c:97: void Tohome()
                                   1916 ;	-----------------------------------------
                                   1917 ;	 function Tohome
                                   1918 ;	-----------------------------------------
      0004D2                       1919 _Tohome:
                                   1920 ;	.\src\main.c:100: for (i = 0; i < 100; i++)
      0004D2 90r00r64         [24] 1921 	mov	dptr,#_i
      0004D5 E4               [12] 1922 	clr	a
      0004D6 F0               [24] 1923 	movx	@dptr,a
      0004D7 A3               [24] 1924 	inc	dptr
      0004D8 F0               [24] 1925 	movx	@dptr,a
      0004D9                       1926 00107$:
                                   1927 ;	.\src\main.c:102: PUL = 0;
                                   1928 ;	assignBit
      0004D9 C2 B3            [12] 1929 	clr	_P33
                                   1930 ;	.\src\main.c:103: Delay100us();
      0004DB 12r04r71         [24] 1931 	lcall	_Delay100us
                                   1932 ;	.\src\main.c:104: Delay100us();
      0004DE 12r04r71         [24] 1933 	lcall	_Delay100us
                                   1934 ;	.\src\main.c:105: Delay100us();
      0004E1 12r04r71         [24] 1935 	lcall	_Delay100us
                                   1936 ;	.\src\main.c:106: PUL = 1;
                                   1937 ;	assignBit
      0004E4 D2 B3            [12] 1938 	setb	_P33
                                   1939 ;	.\src\main.c:107: Delay100us();
      0004E6 12r04r71         [24] 1940 	lcall	_Delay100us
                                   1941 ;	.\src\main.c:108: Delay100us();
      0004E9 12r04r71         [24] 1942 	lcall	_Delay100us
                                   1943 ;	.\src\main.c:109: Delay100us();
      0004EC 12r04r71         [24] 1944 	lcall	_Delay100us
                                   1945 ;	.\src\main.c:100: for (i = 0; i < 100; i++)
      0004EF 90r00r64         [24] 1946 	mov	dptr,#_i
      0004F2 E0               [24] 1947 	movx	a,@dptr
      0004F3 24 01            [12] 1948 	add	a,#0x01
      0004F5 F0               [24] 1949 	movx	@dptr,a
      0004F6 A3               [24] 1950 	inc	dptr
      0004F7 E0               [24] 1951 	movx	a,@dptr
      0004F8 34 00            [12] 1952 	addc	a,#0x00
      0004FA F0               [24] 1953 	movx	@dptr,a
      0004FB 90r00r64         [24] 1954 	mov	dptr,#_i
      0004FE E0               [24] 1955 	movx	a,@dptr
      0004FF FE               [12] 1956 	mov	r6,a
      000500 A3               [24] 1957 	inc	dptr
      000501 E0               [24] 1958 	movx	a,@dptr
      000502 FF               [12] 1959 	mov	r7,a
      000503 C3               [12] 1960 	clr	c
      000504 EE               [12] 1961 	mov	a,r6
      000505 94 64            [12] 1962 	subb	a,#0x64
      000507 EF               [12] 1963 	mov	a,r7
      000508 94 00            [12] 1964 	subb	a,#0x00
      00050A 40 CD            [24] 1965 	jc	00107$
                                   1966 ;	.\src\main.c:111: while (1)
      00050C                       1967 00105$:
                                   1968 ;	.\src\main.c:113: if (X1 == 1)
      00050C 20 87 24         [24] 1969 	jb	_P07,00106$
                                   1970 ;	.\src\main.c:115: PUL = 0;
                                   1971 ;	assignBit
      00050F C2 B3            [12] 1972 	clr	_P33
                                   1973 ;	.\src\main.c:116: Delay100us();
      000511 12r04r71         [24] 1974 	lcall	_Delay100us
                                   1975 ;	.\src\main.c:117: Delay100us();
      000514 12r04r71         [24] 1976 	lcall	_Delay100us
                                   1977 ;	.\src\main.c:118: Delay100us();
      000517 12r04r71         [24] 1978 	lcall	_Delay100us
                                   1979 ;	.\src\main.c:119: Delay100us();
      00051A 12r04r71         [24] 1980 	lcall	_Delay100us
                                   1981 ;	.\src\main.c:120: Delay100us();
      00051D 12r04r71         [24] 1982 	lcall	_Delay100us
                                   1983 ;	.\src\main.c:121: PUL = 1;
                                   1984 ;	assignBit
      000520 D2 B3            [12] 1985 	setb	_P33
                                   1986 ;	.\src\main.c:122: Delay100us();
      000522 12r04r71         [24] 1987 	lcall	_Delay100us
                                   1988 ;	.\src\main.c:123: Delay100us();
      000525 12r04r71         [24] 1989 	lcall	_Delay100us
                                   1990 ;	.\src\main.c:124: Delay100us();
      000528 12r04r71         [24] 1991 	lcall	_Delay100us
                                   1992 ;	.\src\main.c:125: Delay100us();
      00052B 12r04r71         [24] 1993 	lcall	_Delay100us
                                   1994 ;	.\src\main.c:126: Delay100us();
      00052E 12r04r71         [24] 1995 	lcall	_Delay100us
      000531 80 D9            [24] 1996 	sjmp	00105$
      000533                       1997 00106$:
                                   1998 ;	.\src\main.c:128: return;
                                   1999 ;	.\src\main.c:129: }
      000533 22               [24] 2000 	ret
                                   2001 ;------------------------------------------------------------
                                   2002 ;Allocation info for local variables in function 'Run'
                                   2003 ;------------------------------------------------------------
                                   2004 ;	.\src\main.c:131: void Run()
                                   2005 ;	-----------------------------------------
                                   2006 ;	 function Run
                                   2007 ;	-----------------------------------------
      000534                       2008 _Run:
                                   2009 ;	.\src\main.c:133: Y0 = 1;
                                   2010 ;	assignBit
      000534 D2 92            [12] 2011 	setb	_P12
                                   2012 ;	.\src\main.c:134: while (1)
      000536                       2013 00113$:
                                   2014 ;	.\src\main.c:136: if (X2 == 0)
      000536 20 86 FD         [24] 2015 	jb	_P06,00113$
                                   2016 ;	.\src\main.c:138: PCA_Run(value_max * motor_circle);
      000539 90r00r4E         [24] 2017 	mov	dptr,#_motor_circle
      00053C E0               [24] 2018 	movx	a,@dptr
      00053D FF               [12] 2019 	mov	r7,a
      00053E 90r00r04         [24] 2020 	mov	dptr,#_value_max
      000541 E0               [24] 2021 	movx	a,@dptr
      000542 FD               [12] 2022 	mov	r5,a
      000543 A3               [24] 2023 	inc	dptr
      000544 E0               [24] 2024 	movx	a,@dptr
      000545 FE               [12] 2025 	mov	r6,a
      000546 90r00r00         [24] 2026 	mov	dptr,#__mulint_PARM_2
      000549 EF               [12] 2027 	mov	a,r7
      00054A F0               [24] 2028 	movx	@dptr,a
      00054B E4               [12] 2029 	clr	a
      00054C A3               [24] 2030 	inc	dptr
      00054D F0               [24] 2031 	movx	@dptr,a
      00054E 8D 82            [24] 2032 	mov	dpl,r5
      000550 8E 83            [24] 2033 	mov	dph,r6
      000552 12r00r00         [24] 2034 	lcall	__mulint
      000555 12r01r07         [24] 2035 	lcall	_PCA_Run
                                   2036 ;	.\src\main.c:139: while (!PCA_state)
      000558                       2037 00101$:
      000558 90r00r06         [24] 2038 	mov	dptr,#_PCA_state
      00055B E0               [24] 2039 	movx	a,@dptr
      00055C FE               [12] 2040 	mov	r6,a
      00055D A3               [24] 2041 	inc	dptr
      00055E E0               [24] 2042 	movx	a,@dptr
      00055F 4E               [12] 2043 	orl	a,r6
      000560 60 F6            [24] 2044 	jz	00101$
                                   2045 ;	.\src\main.c:141: Y0 = 0;
                                   2046 ;	assignBit
      000562 C2 92            [12] 2047 	clr	_P12
                                   2048 ;	.\src\main.c:142: Tohome();
      000564 12r04rD2         [24] 2049 	lcall	_Tohome
                                   2050 ;	.\src\main.c:143: while (1)
      000567                       2051 00108$:
                                   2052 ;	.\src\main.c:145: if (X3 != 0 && X2 != 0)
      000567 30 85 FD         [24] 2053 	jnb	_P05,00108$
      00056A 30 86 FA         [24] 2054 	jnb	_P06,00108$
                                   2055 ;	.\src\main.c:148: Delay100us();
      00056D 12r04r71         [24] 2056 	lcall	_Delay100us
                                   2057 ;	.\src\main.c:149: ROM_Write();
                                   2058 ;	.\src\main.c:150: return;
                                   2059 ;	.\src\main.c:153: }
      000570 02r04r7F         [24] 2060 	ljmp	_ROM_Write
                                   2061 ;------------------------------------------------------------
                                   2062 ;Allocation info for local variables in function 'UART_Read'
                                   2063 ;------------------------------------------------------------
                                   2064 ;dat                       Allocated with name '_UART_Read_dat_65536_95'
                                   2065 ;------------------------------------------------------------
                                   2066 ;	.\src\main.c:155: void UART_Read(unsigned char dat)
                                   2067 ;	-----------------------------------------
                                   2068 ;	 function UART_Read
                                   2069 ;	-----------------------------------------
      000573                       2070 _UART_Read:
                                   2071 ;	.\src\main.c:157: buf = Uart2Read();
      000573 12r03r12         [24] 2072 	lcall	_Uart2Read
      000576 AF 82            [24] 2073 	mov	r7,dpl
      000578 90r00r63         [24] 2074 	mov	dptr,#_buf
      00057B EF               [12] 2075 	mov	a,r7
      00057C F0               [24] 2076 	movx	@dptr,a
                                   2077 ;	.\src\main.c:158: if (buf != 0x0d && buf != 0x0a && buf != 'K')
      00057D BF 0D 02         [24] 2078 	cjne	r7,#0x0d,00131$
      000580 80 21            [24] 2079 	sjmp	00102$
      000582                       2080 00131$:
      000582 BF 0A 02         [24] 2081 	cjne	r7,#0x0a,00132$
      000585 80 1C            [24] 2082 	sjmp	00102$
      000587                       2083 00132$:
      000587 BF 4B 02         [24] 2084 	cjne	r7,#0x4b,00133$
      00058A 80 17            [24] 2085 	sjmp	00102$
      00058C                       2086 00133$:
                                   2087 ;	.\src\main.c:160: uart2buff[uart2num] = buf;
      00058C 90r00r9F         [24] 2088 	mov	dptr,#_uart2num
      00058F E0               [24] 2089 	movx	a,@dptr
      000590 FE               [12] 2090 	mov	r6,a
      000591 24r8A            [12] 2091 	add	a,#_uart2buff
      000593 F5 82            [12] 2092 	mov	dpl,a
      000595 E4               [12] 2093 	clr	a
      000596 34s00            [12] 2094 	addc	a,#(_uart2buff >> 8)
      000598 F5 83            [12] 2095 	mov	dph,a
      00059A EF               [12] 2096 	mov	a,r7
      00059B F0               [24] 2097 	movx	@dptr,a
                                   2098 ;	.\src\main.c:161: uart2num += 1;
      00059C 90r00r9F         [24] 2099 	mov	dptr,#_uart2num
      00059F E0               [24] 2100 	movx	a,@dptr
      0005A0 FF               [12] 2101 	mov	r7,a
      0005A1 04               [12] 2102 	inc	a
      0005A2 F0               [24] 2103 	movx	@dptr,a
      0005A3                       2104 00102$:
                                   2105 ;	.\src\main.c:163: if (buf == 0x0d || buf == 0x0a || buf == 'K')
      0005A3 90r00r63         [24] 2106 	mov	dptr,#_buf
      0005A6 E0               [24] 2107 	movx	a,@dptr
      0005A7 FF               [12] 2108 	mov	r7,a
      0005A8 BF 0D 02         [24] 2109 	cjne	r7,#0x0d,00134$
      0005AB 80 08            [24] 2110 	sjmp	00105$
      0005AD                       2111 00134$:
      0005AD BF 0A 02         [24] 2112 	cjne	r7,#0x0a,00135$
      0005B0 80 03            [24] 2113 	sjmp	00105$
      0005B2                       2114 00135$:
      0005B2 BF 4B 22         [24] 2115 	cjne	r7,#0x4b,00109$
      0005B5                       2116 00105$:
                                   2117 ;	.\src\main.c:165: uart2buff[uart2num] = buf;
      0005B5 90r00r9F         [24] 2118 	mov	dptr,#_uart2num
      0005B8 E0               [24] 2119 	movx	a,@dptr
      0005B9 24r8A            [12] 2120 	add	a,#_uart2buff
      0005BB FF               [12] 2121 	mov	r7,a
      0005BC E4               [12] 2122 	clr	a
      0005BD 34s00            [12] 2123 	addc	a,#(_uart2buff >> 8)
      0005BF FE               [12] 2124 	mov	r6,a
      0005C0 90r00r63         [24] 2125 	mov	dptr,#_buf
      0005C3 E0               [24] 2126 	movx	a,@dptr
      0005C4 FD               [12] 2127 	mov	r5,a
      0005C5 8F 82            [24] 2128 	mov	dpl,r7
      0005C7 8E 83            [24] 2129 	mov	dph,r6
      0005C9 F0               [24] 2130 	movx	@dptr,a
                                   2131 ;	.\src\main.c:166: uart2num += 1;
      0005CA 90r00r9F         [24] 2132 	mov	dptr,#_uart2num
      0005CD E0               [24] 2133 	movx	a,@dptr
      0005CE FF               [12] 2134 	mov	r7,a
      0005CF 04               [12] 2135 	inc	a
      0005D0 F0               [24] 2136 	movx	@dptr,a
                                   2137 ;	.\src\main.c:167: uart2end = 1;
      0005D1 90r00rA1         [24] 2138 	mov	dptr,#_uart2end
      0005D4 74 01            [12] 2139 	mov	a,#0x01
      0005D6 F0               [24] 2140 	movx	@dptr,a
      0005D7                       2141 00109$:
                                   2142 ;	.\src\main.c:169: }
      0005D7 22               [24] 2143 	ret
                                   2144 ;------------------------------------------------------------
                                   2145 ;Allocation info for local variables in function 'Rom_Init'
                                   2146 ;------------------------------------------------------------
                                   2147 ;h                         Allocated with name '_Rom_Init_h_65536_99'
                                   2148 ;l                         Allocated with name '_Rom_Init_l_65536_99'
                                   2149 ;------------------------------------------------------------
                                   2150 ;	.\src\main.c:171: void Rom_Init()
                                   2151 ;	-----------------------------------------
                                   2152 ;	 function Rom_Init
                                   2153 ;	-----------------------------------------
      0005D8                       2154 _Rom_Init:
                                   2155 ;	.\src\main.c:174: l = IapRead(0x00);
      0005D8 90 00 00         [24] 2156 	mov	dptr,#0x0000
      0005DB 12r04r07         [24] 2157 	lcall	_IapRead
                                   2158 ;	.\src\main.c:175: h = IapRead(0x01);
      0005DE 90 00 01         [24] 2159 	mov	dptr,#0x0001
      0005E1 12r04r07         [24] 2160 	lcall	_IapRead
                                   2161 ;	.\src\main.c:178: motor_circle = motor_circle & l;
      0005E4 90r00r4E         [24] 2162 	mov	dptr,#_motor_circle
      0005E7 E4               [12] 2163 	clr	a
      0005E8 F0               [24] 2164 	movx	@dptr,a
                                   2165 ;	.\src\main.c:180: l = IapRead(0x10);
      0005E9 90 00 10         [24] 2166 	mov	dptr,#0x0010
      0005EC 12r04r07         [24] 2167 	lcall	_IapRead
      0005EF AF 82            [24] 2168 	mov	r7,dpl
                                   2169 ;	.\src\main.c:181: h = IapRead(0x11);
      0005F1 90 00 11         [24] 2170 	mov	dptr,#0x0011
      0005F4 C0 07            [24] 2171 	push	ar7
      0005F6 12r04r07         [24] 2172 	lcall	_IapRead
      0005F9 AE 82            [24] 2173 	mov	r6,dpl
      0005FB D0 07            [24] 2174 	pop	ar7
                                   2175 ;	.\src\main.c:182: value_hz = h;
                                   2176 ;	.\src\main.c:183: value_hz = value_hz << 8;
      0005FD 8E 05            [24] 2177 	mov	ar5,r6
      0005FF 7E 00            [12] 2178 	mov	r6,#0x00
                                   2179 ;	.\src\main.c:184: value_hz = value_hz & l;
      000601 7C 00            [12] 2180 	mov	r4,#0x00
      000603 90r00r00         [24] 2181 	mov	dptr,#_value_hz
      000606 EF               [12] 2182 	mov	a,r7
      000607 5E               [12] 2183 	anl	a,r6
      000608 F0               [24] 2184 	movx	@dptr,a
      000609 EC               [12] 2185 	mov	a,r4
      00060A 5D               [12] 2186 	anl	a,r5
      00060B A3               [24] 2187 	inc	dptr
      00060C F0               [24] 2188 	movx	@dptr,a
                                   2189 ;	.\src\main.c:185: }
      00060D 22               [24] 2190 	ret
                                   2191 ;------------------------------------------------------------
                                   2192 ;Allocation info for local variables in function 'UART_Handle'
                                   2193 ;------------------------------------------------------------
                                   2194 ;dat                       Allocated with name '_UART_Handle_dat_65536_100'
                                   2195 ;------------------------------------------------------------
                                   2196 ;	.\src\main.c:187: void UART_Handle(char *dat)
                                   2197 ;	-----------------------------------------
                                   2198 ;	 function UART_Handle
                                   2199 ;	-----------------------------------------
      00060E                       2200 _UART_Handle:
                                   2201 ;	.\src\main.c:189: if (uart2end)
      00060E 90r00rA1         [24] 2202 	mov	dptr,#_uart2end
      000611 E0               [24] 2203 	movx	a,@dptr
      000612 70 01            [24] 2204 	jnz	00209$
      000614 22               [24] 2205 	ret
      000615                       2206 00209$:
                                   2207 ;	.\src\main.c:191: if (strstr(uart2buff, Button_02))
      000615 90r00r00         [24] 2208 	mov	dptr,#_strstr_PARM_2
      000618 74r16            [12] 2209 	mov	a,#_Button_02
      00061A F0               [24] 2210 	movx	@dptr,a
      00061B 74s00            [12] 2211 	mov	a,#(_Button_02 >> 8)
      00061D A3               [24] 2212 	inc	dptr
      00061E F0               [24] 2213 	movx	@dptr,a
      00061F E4               [12] 2214 	clr	a
      000620 A3               [24] 2215 	inc	dptr
      000621 F0               [24] 2216 	movx	@dptr,a
      000622 90r00r8A         [24] 2217 	mov	dptr,#_uart2buff
      000625 75 F0 00         [24] 2218 	mov	b,#0x00
      000628 12r00r00         [24] 2219 	lcall	_strstr
      00062B AD 82            [24] 2220 	mov	r5,dpl
      00062D AE 83            [24] 2221 	mov	r6,dph
      00062F AF F0            [24] 2222 	mov	r7,b
      000631 ED               [12] 2223 	mov	a,r5
      000632 4E               [12] 2224 	orl	a,r6
      000633 60 0C            [24] 2225 	jz	00105$
                                   2226 ;	.\src\main.c:193: switch (Page)
      000635 90r00r75         [24] 2227 	mov	dptr,#_Page
      000638 E0               [24] 2228 	movx	a,@dptr
      000639 FF               [12] 2229 	mov	r7,a
      00063A 60 02            [24] 2230 	jz	00212$
      00063C 80 03            [24] 2231 	sjmp	00105$
      00063E                       2232 00212$:
                                   2233 ;	.\src\main.c:197: Run();
      00063E 12r05r34         [24] 2234 	lcall	_Run
                                   2235 ;	.\src\main.c:202: }
      000641                       2236 00105$:
                                   2237 ;	.\src\main.c:204: if (strstr(uart2buff, Button_03))
      000641 90r00r00         [24] 2238 	mov	dptr,#_strstr_PARM_2
      000644 74r1D            [12] 2239 	mov	a,#_Button_03
      000646 F0               [24] 2240 	movx	@dptr,a
      000647 74s00            [12] 2241 	mov	a,#(_Button_03 >> 8)
      000649 A3               [24] 2242 	inc	dptr
      00064A F0               [24] 2243 	movx	@dptr,a
      00064B E4               [12] 2244 	clr	a
      00064C A3               [24] 2245 	inc	dptr
      00064D F0               [24] 2246 	movx	@dptr,a
      00064E 90r00r8A         [24] 2247 	mov	dptr,#_uart2buff
      000651 75 F0 00         [24] 2248 	mov	b,#0x00
      000654 12r00r00         [24] 2249 	lcall	_strstr
      000657 AD 82            [24] 2250 	mov	r5,dpl
      000659 AE 83            [24] 2251 	mov	r6,dph
      00065B AF F0            [24] 2252 	mov	r7,b
      00065D ED               [12] 2253 	mov	a,r5
      00065E 4E               [12] 2254 	orl	a,r6
      00065F 60 0F            [24] 2255 	jz	00110$
                                   2256 ;	.\src\main.c:206: switch (Page)
      000661 90r00r75         [24] 2257 	mov	dptr,#_Page
      000664 E0               [24] 2258 	movx	a,@dptr
      000665 FF               [12] 2259 	mov	r7,a
      000666 BF 01 07         [24] 2260 	cjne	r7,#0x01,00110$
                                   2261 ;	.\src\main.c:210: motor_circle += 1;
      000669 90r00r4E         [24] 2262 	mov	dptr,#_motor_circle
      00066C E0               [24] 2263 	movx	a,@dptr
      00066D FF               [12] 2264 	mov	r7,a
      00066E 04               [12] 2265 	inc	a
      00066F F0               [24] 2266 	movx	@dptr,a
                                   2267 ;	.\src\main.c:215: }
      000670                       2268 00110$:
                                   2269 ;	.\src\main.c:217: if (strstr(uart2buff, Button_04))
      000670 90r00r00         [24] 2270 	mov	dptr,#_strstr_PARM_2
      000673 74r24            [12] 2271 	mov	a,#_Button_04
      000675 F0               [24] 2272 	movx	@dptr,a
      000676 74s00            [12] 2273 	mov	a,#(_Button_04 >> 8)
      000678 A3               [24] 2274 	inc	dptr
      000679 F0               [24] 2275 	movx	@dptr,a
      00067A E4               [12] 2276 	clr	a
      00067B A3               [24] 2277 	inc	dptr
      00067C F0               [24] 2278 	movx	@dptr,a
      00067D 90r00r8A         [24] 2279 	mov	dptr,#_uart2buff
      000680 75 F0 00         [24] 2280 	mov	b,#0x00
      000683 12r00r00         [24] 2281 	lcall	_strstr
      000686 AD 82            [24] 2282 	mov	r5,dpl
      000688 AE 83            [24] 2283 	mov	r6,dph
      00068A AF F0            [24] 2284 	mov	r7,b
      00068C ED               [12] 2285 	mov	a,r5
      00068D 4E               [12] 2286 	orl	a,r6
      00068E 60 18            [24] 2287 	jz	00116$
                                   2288 ;	.\src\main.c:219: switch (Page)
      000690 90r00r75         [24] 2289 	mov	dptr,#_Page
      000693 E0               [24] 2290 	movx	a,@dptr
      000694 FF               [12] 2291 	mov	r7,a
      000695 60 05            [24] 2292 	jz	00111$
                                   2293 ;	.\src\main.c:221: case 0:
      000697 BF 01 0E         [24] 2294 	cjne	r7,#0x01,00116$
      00069A 80 05            [24] 2295 	sjmp	00112$
      00069C                       2296 00111$:
                                   2297 ;	.\src\main.c:223: IAP_CONTR = 0x60;
      00069C 75 C7 60         [24] 2298 	mov	_IAP_CONTR,#0x60
                                   2299 ;	.\src\main.c:224: break;
                                   2300 ;	.\src\main.c:226: case 1:
      00069F 80 07            [24] 2301 	sjmp	00116$
      0006A1                       2302 00112$:
                                   2303 ;	.\src\main.c:228: motor_circle -= 1;
      0006A1 90r00r4E         [24] 2304 	mov	dptr,#_motor_circle
      0006A4 E0               [24] 2305 	movx	a,@dptr
      0006A5 FF               [12] 2306 	mov	r7,a
      0006A6 14               [12] 2307 	dec	a
      0006A7 F0               [24] 2308 	movx	@dptr,a
                                   2309 ;	.\src\main.c:233: }
      0006A8                       2310 00116$:
                                   2311 ;	.\src\main.c:235: if (strstr(uart2buff, Button_07))
      0006A8 90r00r00         [24] 2312 	mov	dptr,#_strstr_PARM_2
      0006AB 74r39            [12] 2313 	mov	a,#_Button_07
      0006AD F0               [24] 2314 	movx	@dptr,a
      0006AE 74s00            [12] 2315 	mov	a,#(_Button_07 >> 8)
      0006B0 A3               [24] 2316 	inc	dptr
      0006B1 F0               [24] 2317 	movx	@dptr,a
      0006B2 E4               [12] 2318 	clr	a
      0006B3 A3               [24] 2319 	inc	dptr
      0006B4 F0               [24] 2320 	movx	@dptr,a
      0006B5 90r00r8A         [24] 2321 	mov	dptr,#_uart2buff
      0006B8 75 F0 00         [24] 2322 	mov	b,#0x00
      0006BB 12r00r00         [24] 2323 	lcall	_strstr
      0006BE AD 82            [24] 2324 	mov	r5,dpl
      0006C0 AE 83            [24] 2325 	mov	r6,dph
      0006C2 AF F0            [24] 2326 	mov	r7,b
      0006C4 ED               [12] 2327 	mov	a,r5
      0006C5 4E               [12] 2328 	orl	a,r6
      0006C6 60 1B            [24] 2329 	jz	00121$
                                   2330 ;	.\src\main.c:237: switch (Page)
      0006C8 90r00r75         [24] 2331 	mov	dptr,#_Page
      0006CB E0               [24] 2332 	movx	a,@dptr
      0006CC FF               [12] 2333 	mov	r7,a
      0006CD BF 01 13         [24] 2334 	cjne	r7,#0x01,00121$
                                   2335 ;	.\src\main.c:241: value_hz += 5;
      0006D0 90r00r00         [24] 2336 	mov	dptr,#_value_hz
      0006D3 E0               [24] 2337 	movx	a,@dptr
      0006D4 FE               [12] 2338 	mov	r6,a
      0006D5 A3               [24] 2339 	inc	dptr
      0006D6 E0               [24] 2340 	movx	a,@dptr
      0006D7 FF               [12] 2341 	mov	r7,a
      0006D8 90r00r00         [24] 2342 	mov	dptr,#_value_hz
      0006DB 74 05            [12] 2343 	mov	a,#0x05
      0006DD 2E               [12] 2344 	add	a,r6
      0006DE F0               [24] 2345 	movx	@dptr,a
      0006DF E4               [12] 2346 	clr	a
      0006E0 3F               [12] 2347 	addc	a,r7
      0006E1 A3               [24] 2348 	inc	dptr
      0006E2 F0               [24] 2349 	movx	@dptr,a
                                   2350 ;	.\src\main.c:246: }
      0006E3                       2351 00121$:
                                   2352 ;	.\src\main.c:248: if (strstr(uart2buff, Button_08))
      0006E3 90r00r00         [24] 2353 	mov	dptr,#_strstr_PARM_2
      0006E6 74r40            [12] 2354 	mov	a,#_Button_08
      0006E8 F0               [24] 2355 	movx	@dptr,a
      0006E9 74s00            [12] 2356 	mov	a,#(_Button_08 >> 8)
      0006EB A3               [24] 2357 	inc	dptr
      0006EC F0               [24] 2358 	movx	@dptr,a
      0006ED E4               [12] 2359 	clr	a
      0006EE A3               [24] 2360 	inc	dptr
      0006EF F0               [24] 2361 	movx	@dptr,a
      0006F0 90r00r8A         [24] 2362 	mov	dptr,#_uart2buff
      0006F3 75 F0 00         [24] 2363 	mov	b,#0x00
      0006F6 12r00r00         [24] 2364 	lcall	_strstr
      0006F9 AD 82            [24] 2365 	mov	r5,dpl
      0006FB AE 83            [24] 2366 	mov	r6,dph
      0006FD AF F0            [24] 2367 	mov	r7,b
      0006FF ED               [12] 2368 	mov	a,r5
      000700 4E               [12] 2369 	orl	a,r6
      000701 60 20            [24] 2370 	jz	00126$
                                   2371 ;	.\src\main.c:250: switch (Page)
      000703 90r00r75         [24] 2372 	mov	dptr,#_Page
      000706 E0               [24] 2373 	movx	a,@dptr
      000707 FF               [12] 2374 	mov	r7,a
      000708 BF 01 18         [24] 2375 	cjne	r7,#0x01,00126$
                                   2376 ;	.\src\main.c:254: value_hz -= 5;
      00070B 90r00r00         [24] 2377 	mov	dptr,#_value_hz
      00070E E0               [24] 2378 	movx	a,@dptr
      00070F FE               [12] 2379 	mov	r6,a
      000710 A3               [24] 2380 	inc	dptr
      000711 E0               [24] 2381 	movx	a,@dptr
      000712 FF               [12] 2382 	mov	r7,a
      000713 EE               [12] 2383 	mov	a,r6
      000714 24 FB            [12] 2384 	add	a,#0xfb
      000716 FE               [12] 2385 	mov	r6,a
      000717 EF               [12] 2386 	mov	a,r7
      000718 34 FF            [12] 2387 	addc	a,#0xff
      00071A FF               [12] 2388 	mov	r7,a
      00071B 90r00r00         [24] 2389 	mov	dptr,#_value_hz
      00071E EE               [12] 2390 	mov	a,r6
      00071F F0               [24] 2391 	movx	@dptr,a
      000720 EF               [12] 2392 	mov	a,r7
      000721 A3               [24] 2393 	inc	dptr
      000722 F0               [24] 2394 	movx	@dptr,a
                                   2395 ;	.\src\main.c:259: }
      000723                       2396 00126$:
                                   2397 ;	.\src\main.c:261: if (strstr(uart2buff, Page_00))
      000723 90r00r00         [24] 2398 	mov	dptr,#_strstr_PARM_2
      000726 74r55            [12] 2399 	mov	a,#_Page_00
      000728 F0               [24] 2400 	movx	@dptr,a
      000729 74s00            [12] 2401 	mov	a,#(_Page_00 >> 8)
      00072B A3               [24] 2402 	inc	dptr
      00072C F0               [24] 2403 	movx	@dptr,a
      00072D E4               [12] 2404 	clr	a
      00072E A3               [24] 2405 	inc	dptr
      00072F F0               [24] 2406 	movx	@dptr,a
      000730 90r00r8A         [24] 2407 	mov	dptr,#_uart2buff
      000733 75 F0 00         [24] 2408 	mov	b,#0x00
      000736 12r00r00         [24] 2409 	lcall	_strstr
      000739 AD 82            [24] 2410 	mov	r5,dpl
      00073B AE 83            [24] 2411 	mov	r6,dph
      00073D ED               [12] 2412 	mov	a,r5
      00073E 4E               [12] 2413 	orl	a,r6
      00073F 60 05            [24] 2414 	jz	00128$
                                   2415 ;	.\src\main.c:263: Page = 0;
      000741 90r00r75         [24] 2416 	mov	dptr,#_Page
      000744 E4               [12] 2417 	clr	a
      000745 F0               [24] 2418 	movx	@dptr,a
      000746                       2419 00128$:
                                   2420 ;	.\src\main.c:265: if (strstr(uart2buff, Page_01))
      000746 90r00r00         [24] 2421 	mov	dptr,#_strstr_PARM_2
      000749 74r5D            [12] 2422 	mov	a,#_Page_01
      00074B F0               [24] 2423 	movx	@dptr,a
      00074C 74s00            [12] 2424 	mov	a,#(_Page_01 >> 8)
      00074E A3               [24] 2425 	inc	dptr
      00074F F0               [24] 2426 	movx	@dptr,a
      000750 E4               [12] 2427 	clr	a
      000751 A3               [24] 2428 	inc	dptr
      000752 F0               [24] 2429 	movx	@dptr,a
      000753 90r00r8A         [24] 2430 	mov	dptr,#_uart2buff
      000756 75 F0 00         [24] 2431 	mov	b,#0x00
      000759 12r00r00         [24] 2432 	lcall	_strstr
      00075C AD 82            [24] 2433 	mov	r5,dpl
      00075E AE 83            [24] 2434 	mov	r6,dph
      000760 ED               [12] 2435 	mov	a,r5
      000761 4E               [12] 2436 	orl	a,r6
      000762 60 06            [24] 2437 	jz	00130$
                                   2438 ;	.\src\main.c:267: Page = 1;
      000764 90r00r75         [24] 2439 	mov	dptr,#_Page
      000767 74 01            [12] 2440 	mov	a,#0x01
      000769 F0               [24] 2441 	movx	@dptr,a
      00076A                       2442 00130$:
                                   2443 ;	.\src\main.c:269: if (strstr(uart2buff, Page_02))
      00076A 90r00r00         [24] 2444 	mov	dptr,#_strstr_PARM_2
      00076D 74r65            [12] 2445 	mov	a,#_Page_02
      00076F F0               [24] 2446 	movx	@dptr,a
      000770 74s00            [12] 2447 	mov	a,#(_Page_02 >> 8)
      000772 A3               [24] 2448 	inc	dptr
      000773 F0               [24] 2449 	movx	@dptr,a
      000774 E4               [12] 2450 	clr	a
      000775 A3               [24] 2451 	inc	dptr
      000776 F0               [24] 2452 	movx	@dptr,a
      000777 90r00r8A         [24] 2453 	mov	dptr,#_uart2buff
      00077A 75 F0 00         [24] 2454 	mov	b,#0x00
      00077D 12r00r00         [24] 2455 	lcall	_strstr
      000780 AD 82            [24] 2456 	mov	r5,dpl
      000782 AE 83            [24] 2457 	mov	r6,dph
      000784 AF F0            [24] 2458 	mov	r7,b
      000786 ED               [12] 2459 	mov	a,r5
      000787 4E               [12] 2460 	orl	a,r6
      000788 60 06            [24] 2461 	jz	00132$
                                   2462 ;	.\src\main.c:271: Page = 2;
      00078A 90r00r75         [24] 2463 	mov	dptr,#_Page
      00078D 74 02            [12] 2464 	mov	a,#0x02
      00078F F0               [24] 2465 	movx	@dptr,a
      000790                       2466 00132$:
                                   2467 ;	.\src\main.c:273: uart2num = 0;
      000790 90r00r9F         [24] 2468 	mov	dptr,#_uart2num
      000793 E4               [12] 2469 	clr	a
      000794 F0               [24] 2470 	movx	@dptr,a
                                   2471 ;	.\src\main.c:274: uart2end = 0;
      000795 90r00rA1         [24] 2472 	mov	dptr,#_uart2end
      000798 F0               [24] 2473 	movx	@dptr,a
                                   2474 ;	.\src\main.c:275: i = sizeof(uart2buff) / sizeof(uart2buff[0]);
      000799 90r00r64         [24] 2475 	mov	dptr,#_i
      00079C 74 14            [12] 2476 	mov	a,#0x14
      00079E F0               [24] 2477 	movx	@dptr,a
      00079F E4               [12] 2478 	clr	a
      0007A0 A3               [24] 2479 	inc	dptr
      0007A1 F0               [24] 2480 	movx	@dptr,a
                                   2481 ;	.\src\main.c:276: for (ii = 0; ii < i; ii++)
      0007A2 90r00r66         [24] 2482 	mov	dptr,#_ii
      0007A5 F0               [24] 2483 	movx	@dptr,a
      0007A6 A3               [24] 2484 	inc	dptr
      0007A7 F0               [24] 2485 	movx	@dptr,a
      0007A8                       2486 00137$:
      0007A8 90r00r66         [24] 2487 	mov	dptr,#_ii
      0007AB E0               [24] 2488 	movx	a,@dptr
      0007AC FE               [12] 2489 	mov	r6,a
      0007AD A3               [24] 2490 	inc	dptr
      0007AE E0               [24] 2491 	movx	a,@dptr
      0007AF FF               [12] 2492 	mov	r7,a
      0007B0 90r00r64         [24] 2493 	mov	dptr,#_i
      0007B3 E0               [24] 2494 	movx	a,@dptr
      0007B4 FC               [12] 2495 	mov	r4,a
      0007B5 A3               [24] 2496 	inc	dptr
      0007B6 E0               [24] 2497 	movx	a,@dptr
      0007B7 FD               [12] 2498 	mov	r5,a
      0007B8 C3               [12] 2499 	clr	c
      0007B9 EE               [12] 2500 	mov	a,r6
      0007BA 9C               [12] 2501 	subb	a,r4
      0007BB EF               [12] 2502 	mov	a,r7
      0007BC 9D               [12] 2503 	subb	a,r5
      0007BD 50 1A            [24] 2504 	jnc	00139$
                                   2505 ;	.\src\main.c:278: uart2buff[ii] = 0;
      0007BF EE               [12] 2506 	mov	a,r6
      0007C0 24r8A            [12] 2507 	add	a,#_uart2buff
      0007C2 F5 82            [12] 2508 	mov	dpl,a
      0007C4 EF               [12] 2509 	mov	a,r7
      0007C5 34s00            [12] 2510 	addc	a,#(_uart2buff >> 8)
      0007C7 F5 83            [12] 2511 	mov	dph,a
      0007C9 E4               [12] 2512 	clr	a
      0007CA F0               [24] 2513 	movx	@dptr,a
                                   2514 ;	.\src\main.c:276: for (ii = 0; ii < i; ii++)
      0007CB 90r00r66         [24] 2515 	mov	dptr,#_ii
      0007CE E0               [24] 2516 	movx	a,@dptr
      0007CF 24 01            [12] 2517 	add	a,#0x01
      0007D1 F0               [24] 2518 	movx	@dptr,a
      0007D2 A3               [24] 2519 	inc	dptr
      0007D3 E0               [24] 2520 	movx	a,@dptr
      0007D4 34 00            [12] 2521 	addc	a,#0x00
      0007D6 F0               [24] 2522 	movx	@dptr,a
      0007D7 80 CF            [24] 2523 	sjmp	00137$
      0007D9                       2524 00139$:
                                   2525 ;	.\src\main.c:281: }
      0007D9 22               [24] 2526 	ret
                                   2527 ;------------------------------------------------------------
                                   2528 ;Allocation info for local variables in function 'main'
                                   2529 ;------------------------------------------------------------
                                   2530 ;	.\src\main.c:283: void main()
                                   2531 ;	-----------------------------------------
                                   2532 ;	 function main
                                   2533 ;	-----------------------------------------
      0007DA                       2534 _main:
                                   2535 ;	.\src\main.c:285: P_SW1 = 0x30;
      0007DA 75 A2 30         [24] 2536 	mov	_P_SW1,#0x30
                                   2537 ;	.\src\main.c:286: P1 = 0x00;
      0007DD 75 90 00         [24] 2538 	mov	_P1,#0x00
                                   2539 ;	.\src\main.c:287: P0M1 = 0x00;
      0007E0 75 93 00         [24] 2540 	mov	_P0M1,#0x00
                                   2541 ;	.\src\main.c:288: P0M0 = 0X00;
      0007E3 75 94 00         [24] 2542 	mov	_P0M0,#0x00
                                   2543 ;	.\src\main.c:289: P4M1 = 0x00;
      0007E6 75 B3 00         [24] 2544 	mov	_P4M1,#0x00
                                   2545 ;	.\src\main.c:290: P4M0 = 0x00;
      0007E9 75 B4 00         [24] 2546 	mov	_P4M0,#0x00
                                   2547 ;	.\src\main.c:291: P1M0 = 0xfe;
      0007EC 75 92 FE         [24] 2548 	mov	_P1M0,#0xfe
                                   2549 ;	.\src\main.c:292: P1M1 = 0x00;
      0007EF 75 91 00         [24] 2550 	mov	_P1M1,#0x00
                                   2551 ;	.\src\main.c:293: PCA_Init();
      0007F2 12r00rBF         [24] 2552 	lcall	_PCA_Init
                                   2553 ;	.\src\main.c:294: Uart2Init();
      0007F5 12r02rF8         [24] 2554 	lcall	_Uart2Init
                                   2555 ;	.\src\main.c:295: Rom_Init();
      0007F8 12r05rD8         [24] 2556 	lcall	_Rom_Init
                                   2557 ;	.\src\main.c:297: IE2 = 0x01;
      0007FB 75 AF 01         [24] 2558 	mov	_IE2,#0x01
                                   2559 ;	.\src\main.c:298: ES = 1;
                                   2560 ;	assignBit
      0007FE D2 AC            [12] 2561 	setb	_ES
                                   2562 ;	.\src\main.c:299: EA = 1;
                                   2563 ;	assignBit
      000800 D2 AF            [12] 2564 	setb	_EA
                                   2565 ;	.\src\main.c:300: while (1)
      000802                       2566 00106$:
                                   2567 ;	.\src\main.c:302: if (X2 != 0)
      000802 30 86 06         [24] 2568 	jnb	_P06,00104$
                                   2569 ;	.\src\main.c:304: if (X0 == 0)
      000805 20 C3 03         [24] 2570 	jb	_P43,00104$
                                   2571 ;	.\src\main.c:306: Run();
      000808 12r05r34         [24] 2572 	lcall	_Run
      00080B                       2573 00104$:
                                   2574 ;	.\src\main.c:309: UART_Read(0);
      00080B 75 82 00         [24] 2575 	mov	dpl,#0x00
      00080E 12r05r73         [24] 2576 	lcall	_UART_Read
                                   2577 ;	.\src\main.c:310: UART_Handle(0);
      000811 90 00 00         [24] 2578 	mov	dptr,#0x0000
      000814 75 F0 00         [24] 2579 	mov	b,#0x00
      000817 12r06r0E         [24] 2580 	lcall	_UART_Handle
                                   2581 ;	.\src\main.c:312: }
      00081A 80 E6            [24] 2582 	sjmp	00106$
                                   2583 	.area CSEG    (CODE)
                                   2584 	.area CONST   (CODE)
                                   2585 	.area XINIT   (CODE)
      000000                       2586 __xinit__value_hz:
      000000 10 27                 2587 	.byte #0x10, #0x27	; 10000
      000002                       2588 __xinit__value_count:
      000002 00 00                 2589 	.byte #0x00, #0x00	; 0
      000004                       2590 __xinit__value_max:
      000004 40 06                 2591 	.byte #0x40, #0x06	; 1600
      000006                       2592 __xinit__PCA_state:
      000006 00 00                 2593 	.byte #0x00, #0x00	; 0
      000008                       2594 __xinit__Button_00:
      000008 5B 42 4E 3A 30 5D     2595 	.ascii "[BN:0]"
      00000E 00                    2596 	.db 0x00
      00000F                       2597 __xinit__Button_01:
      00000F 5B 42 4E 3A 31 5D     2598 	.ascii "[BN:1]"
      000015 00                    2599 	.db 0x00
      000016                       2600 __xinit__Button_02:
      000016 5B 42 4E 3A 32 5D     2601 	.ascii "[BN:2]"
      00001C 00                    2602 	.db 0x00
      00001D                       2603 __xinit__Button_03:
      00001D 5B 42 4E 3A 33 5D     2604 	.ascii "[BN:3]"
      000023 00                    2605 	.db 0x00
      000024                       2606 __xinit__Button_04:
      000024 5B 42 4E 3A 34 5D     2607 	.ascii "[BN:4]"
      00002A 00                    2608 	.db 0x00
      00002B                       2609 __xinit__Button_05:
      00002B 5B 42 4E 3A 35 5D     2610 	.ascii "[BN:5]"
      000031 00                    2611 	.db 0x00
      000032                       2612 __xinit__Button_06:
      000032 5B 42 4E 3A 36 5D     2613 	.ascii "[BN:6]"
      000038 00                    2614 	.db 0x00
      000039                       2615 __xinit__Button_07:
      000039 5B 42 4E 3A 37 5D     2616 	.ascii "[BN:7]"
      00003F 00                    2617 	.db 0x00
      000040                       2618 __xinit__Button_08:
      000040 5B 42 4E 3A 38 5D     2619 	.ascii "[BN:8]"
      000046 00                    2620 	.db 0x00
      000047                       2621 __xinit__Button_09:
      000047 5B 42 4E 3A 39 5D     2622 	.ascii "[BN:9]"
      00004D 00                    2623 	.db 0x00
      00004E                       2624 __xinit__tests:
      00004E 5B 42 4E 3A 32 5D     2625 	.ascii "[BN:2]"
      000054 00                    2626 	.db 0x00
      000055                       2627 __xinit__Page_00:
      000055 50 41 47 45 30 4F 4B  2628 	.ascii "PAGE0OK"
      00005C 00                    2629 	.db 0x00
      00005D                       2630 __xinit__Page_01:
      00005D 50 41 47 45 31 4F 4B  2631 	.ascii "PAGE1OK"
      000064 00                    2632 	.db 0x00
      000065                       2633 __xinit__Page_02:
      000065 50 41 47 45 32 4F 4B  2634 	.ascii "PAGE2OK"
      00006C 00                    2635 	.db 0x00
      00006D                       2636 __xinit__Page_03:
      00006D 50 41 47 45 33 4F 4B  2637 	.ascii "PAGE3OK"
      000074 00                    2638 	.db 0x00
      000075                       2639 __xinit__Page:
      000075 00                    2640 	.db #0x00	; 0
      000076                       2641 __xinit__uart1buff:
      000076 00                    2642 	.db #0x00	; 0
      000077 00                    2643 	.db 0x00
      000078 00                    2644 	.db 0x00
      000079 00                    2645 	.db 0x00
      00007A 00                    2646 	.db 0x00
      00007B 00                    2647 	.db 0x00
      00007C 00                    2648 	.db 0x00
      00007D 00                    2649 	.db 0x00
      00007E 00                    2650 	.db 0x00
      00007F 00                    2651 	.db 0x00
      000080 00                    2652 	.db 0x00
      000081 00                    2653 	.db 0x00
      000082 00                    2654 	.db 0x00
      000083 00                    2655 	.db 0x00
      000084 00                    2656 	.db 0x00
      000085 00                    2657 	.db 0x00
      000086 00                    2658 	.db 0x00
      000087 00                    2659 	.db 0x00
      000088 00                    2660 	.db 0x00
      000089 00                    2661 	.db 0x00
      00008A                       2662 __xinit__uart2buff:
      00008A 00                    2663 	.db #0x00	; 0
      00008B 00                    2664 	.db 0x00
      00008C 00                    2665 	.db 0x00
      00008D 00                    2666 	.db 0x00
      00008E 00                    2667 	.db 0x00
      00008F 00                    2668 	.db 0x00
      000090 00                    2669 	.db 0x00
      000091 00                    2670 	.db 0x00
      000092 00                    2671 	.db 0x00
      000093 00                    2672 	.db 0x00
      000094 00                    2673 	.db 0x00
      000095 00                    2674 	.db 0x00
      000096 00                    2675 	.db 0x00
      000097 00                    2676 	.db 0x00
      000098 00                    2677 	.db 0x00
      000099 00                    2678 	.db 0x00
      00009A 00                    2679 	.db 0x00
      00009B 00                    2680 	.db 0x00
      00009C 00                    2681 	.db 0x00
      00009D 00                    2682 	.db 0x00
      00009E                       2683 __xinit__uart1num:
      00009E 00                    2684 	.db #0x00	; 0
      00009F                       2685 __xinit__uart2num:
      00009F 00                    2686 	.db #0x00	; 0
      0000A0                       2687 __xinit__uart1end:
      0000A0 00                    2688 	.db #0x00	; 0
      0000A1                       2689 __xinit__uart2end:
      0000A1 00                    2690 	.db #0x00	; 0
                                   2691 	.area CABS    (ABS,CODE)
